
build/os.elf:     file format elf32-littleriscv


Disassembly of section .text:

80000000 <_start>:
	.global	_start

	.text
_start:
	# park harts with id != 0
	csrr	t0, mhartid		# read current hart id
80000000:	f14022f3          	csrr	t0,mhartid
	mv	tp, t0			# keep CPU's hartid in its tp for later usage.
80000004:	00028213          	mv	tp,t0
	bnez	t0, park		# if we're not on the hart 0
80000008:	04029663          	bnez	t0,80000054 <park>
					# we park the hart

	# Set all bytes in the BSS section to zero.
	la	a0, _bss_start
8000000c:	00006517          	auipc	a0,0x6
80000010:	05450513          	addi	a0,a0,84 # 80006060 <timers>
	la	a1, _bss_end
80000014:	00c07597          	auipc	a1,0xc07
80000018:	af458593          	addi	a1,a1,-1292 # 80c06b08 <_bss_end>
	bgeu	a0, a1, 2f
8000001c:	00b57863          	bgeu	a0,a1,8000002c <_start+0x2c>
1:
	sw	zero, (a0)
80000020:	00052023          	sw	zero,0(a0)
	addi	a0, a0, 4
80000024:	00450513          	addi	a0,a0,4
	bltu	a0, a1, 1b
80000028:	feb56ce3          	bltu	a0,a1,80000020 <_start+0x20>
2:
	# Setup stacks, the stack grows from bottom to top, so we put the
	# stack pointer to the very end of the stack range.
	slli	t0, t0, 10		# shift left the hart id by 1024
8000002c:	00a29293          	slli	t0,t0,0xa
	la	sp, stacks + STACK_SIZE	# set the initial stack pointer
80000030:	00000117          	auipc	sp,0x0
80000034:	43010113          	addi	sp,sp,1072 # 80000460 <stacks+0x400>
					# to the end of the first stack space
	add	sp, sp, t0		# move the current hart stack pointer
80000038:	00510133          	add	sp,sp,t0
	# At the end of start_kernel, schedule() will call MRET to switch
	# to the first task, so we parepare the mstatus here.
	# Notice: default mstatus is 0
	# Set mstatus.MPP to 3, so we still run in Machine mode after MRET.
	# Set mstatus.MPIE to 1, so MRET will enable the interrupt.
	li	t0, 3 << 11 | 1 << 7
8000003c:	000022b7          	lui	t0,0x2
80000040:	88028293          	addi	t0,t0,-1920 # 1880 <STACK_SIZE+0x1480>
	csrr	a1, mstatus
80000044:	300025f3          	csrr	a1,mstatus
	or	t0, t0, a1
80000048:	00b2e2b3          	or	t0,t0,a1
	csrw	mstatus, t0
8000004c:	30029073          	csrw	mstatus,t0

	j	start_kernel		# hart 0 jump to c
80000050:	1e00206f          	j	80002230 <start_kernel>

80000054 <park>:

park:
	wfi
80000054:	10500073          	wfi
	j	park
80000058:	ffdff06f          	j	80000054 <park>
8000005c:	00000013          	nop

80000060 <stacks>:
	...

80002068 <trap_vector>:
.globl trap_vector
# the trap vector base address must always be aligned on a 4-byte boundary
.balign 4
trap_vector:
	# save context(registers).
	csrrw	t6, mscratch, t6	# swap t6 and mscratch
80002068:	340f9ff3          	csrrw	t6,mscratch,t6
	reg_save t6
8000206c:	001fa023          	sw	ra,0(t6)
80002070:	002fa223          	sw	sp,4(t6)
80002074:	005fa823          	sw	t0,16(t6)
80002078:	006faa23          	sw	t1,20(t6)
8000207c:	007fac23          	sw	t2,24(t6)
80002080:	008fae23          	sw	s0,28(t6)
80002084:	029fa023          	sw	s1,32(t6)
80002088:	02afa223          	sw	a0,36(t6)
8000208c:	02bfa423          	sw	a1,40(t6)
80002090:	02cfa623          	sw	a2,44(t6)
80002094:	02dfa823          	sw	a3,48(t6)
80002098:	02efaa23          	sw	a4,52(t6)
8000209c:	02ffac23          	sw	a5,56(t6)
800020a0:	030fae23          	sw	a6,60(t6)
800020a4:	051fa023          	sw	a7,64(t6)
800020a8:	052fa223          	sw	s2,68(t6)
800020ac:	053fa423          	sw	s3,72(t6)
800020b0:	054fa623          	sw	s4,76(t6)
800020b4:	055fa823          	sw	s5,80(t6)
800020b8:	056faa23          	sw	s6,84(t6)
800020bc:	057fac23          	sw	s7,88(t6)
800020c0:	058fae23          	sw	s8,92(t6)
800020c4:	079fa023          	sw	s9,96(t6)
800020c8:	07afa223          	sw	s10,100(t6)
800020cc:	07bfa423          	sw	s11,104(t6)
800020d0:	07cfa623          	sw	t3,108(t6)
800020d4:	07dfa823          	sw	t4,112(t6)
800020d8:	07efaa23          	sw	t5,116(t6)

	# Save the actual t6 register, which we swapped into
	# mscratch
	mv	t5, t6		# t5 points to the context of current task
800020dc:	000f8f13          	mv	t5,t6
	csrr	t6, mscratch	# read t6 back from mscratch
800020e0:	34002ff3          	csrr	t6,mscratch
	sw	t6, 120(t5)	# save t6 with t5 as base
800020e4:	07ff2c23          	sw	t6,120(t5)

	# save mepc to context of current task
	csrr	a0, mepc
800020e8:	34102573          	csrr	a0,mepc
	sw	a0, 124(t5)
800020ec:	06af2e23          	sw	a0,124(t5)

	# Restore the context pointer into mscratch
	csrw	mscratch, t5
800020f0:	340f1073          	csrw	mscratch,t5

	# call the C trap handler in trap.c
	csrr	a0, mepc
800020f4:	34102573          	csrr	a0,mepc
	csrr	a1, mcause
800020f8:	342025f3          	csrr	a1,mcause
	call	trap_handler
800020fc:	781000ef          	jal	ra,8000307c <trap_handler>

	# trap_handler will return the return address via a0.
	csrw	mepc, a0
80002100:	34151073          	csrw	mepc,a0

	# restore context(registers).
	csrr	t6, mscratch
80002104:	34002ff3          	csrr	t6,mscratch
	reg_restore t6
80002108:	000fa083          	lw	ra,0(t6)
8000210c:	004fa103          	lw	sp,4(t6)
80002110:	010fa283          	lw	t0,16(t6)
80002114:	014fa303          	lw	t1,20(t6)
80002118:	018fa383          	lw	t2,24(t6)
8000211c:	01cfa403          	lw	s0,28(t6)
80002120:	020fa483          	lw	s1,32(t6)
80002124:	024fa503          	lw	a0,36(t6)
80002128:	028fa583          	lw	a1,40(t6)
8000212c:	02cfa603          	lw	a2,44(t6)
80002130:	030fa683          	lw	a3,48(t6)
80002134:	034fa703          	lw	a4,52(t6)
80002138:	038fa783          	lw	a5,56(t6)
8000213c:	03cfa803          	lw	a6,60(t6)
80002140:	040fa883          	lw	a7,64(t6)
80002144:	044fa903          	lw	s2,68(t6)
80002148:	048fa983          	lw	s3,72(t6)
8000214c:	04cfaa03          	lw	s4,76(t6)
80002150:	050faa83          	lw	s5,80(t6)
80002154:	054fab03          	lw	s6,84(t6)
80002158:	058fab83          	lw	s7,88(t6)
8000215c:	05cfac03          	lw	s8,92(t6)
80002160:	060fac83          	lw	s9,96(t6)
80002164:	064fad03          	lw	s10,100(t6)
80002168:	068fad83          	lw	s11,104(t6)
8000216c:	06cfae03          	lw	t3,108(t6)
80002170:	070fae83          	lw	t4,112(t6)
80002174:	074faf03          	lw	t5,116(t6)
80002178:	078faf83          	lw	t6,120(t6)

	# return to whatever we were doing before trap.
	mret
8000217c:	30200073          	mret

80002180 <switch_to>:
# a0: pointer to the context of the next task
.globl switch_to
.balign 4
switch_to:
	# switch mscratch to point to the context of the next task
	csrw	mscratch, a0
80002180:	34051073          	csrw	mscratch,a0
	# set mepc to the pc of the next task
	lw	a1, 124(a0)
80002184:	07c52583          	lw	a1,124(a0)
	csrw	mepc, a1
80002188:	34159073          	csrw	mepc,a1

	# Restore all GP registers
	# Use t6 to point to the context of the new task
	mv	t6, a0
8000218c:	00050f93          	mv	t6,a0
	reg_restore t6
80002190:	000fa083          	lw	ra,0(t6)
80002194:	004fa103          	lw	sp,4(t6)
80002198:	010fa283          	lw	t0,16(t6)
8000219c:	014fa303          	lw	t1,20(t6)
800021a0:	018fa383          	lw	t2,24(t6)
800021a4:	01cfa403          	lw	s0,28(t6)
800021a8:	020fa483          	lw	s1,32(t6)
800021ac:	024fa503          	lw	a0,36(t6)
800021b0:	028fa583          	lw	a1,40(t6)
800021b4:	02cfa603          	lw	a2,44(t6)
800021b8:	030fa683          	lw	a3,48(t6)
800021bc:	034fa703          	lw	a4,52(t6)
800021c0:	038fa783          	lw	a5,56(t6)
800021c4:	03cfa803          	lw	a6,60(t6)
800021c8:	040fa883          	lw	a7,64(t6)
800021cc:	044fa903          	lw	s2,68(t6)
800021d0:	048fa983          	lw	s3,72(t6)
800021d4:	04cfaa03          	lw	s4,76(t6)
800021d8:	050faa83          	lw	s5,80(t6)
800021dc:	054fab03          	lw	s6,84(t6)
800021e0:	058fab83          	lw	s7,88(t6)
800021e4:	05cfac03          	lw	s8,92(t6)
800021e8:	060fac83          	lw	s9,96(t6)
800021ec:	064fad03          	lw	s10,100(t6)
800021f0:	068fad83          	lw	s11,104(t6)
800021f4:	06cfae03          	lw	t3,108(t6)
800021f8:	070fae83          	lw	t4,112(t6)
800021fc:	074faf03          	lw	t5,116(t6)
80002200:	078faf83          	lw	t6,120(t6)

	# Do actual context switching.
	# Notice this will enable global interrupt
	mret
80002204:	30200073          	mret

80002208 <r_mhartid>:
	return x;
}

/* which hart (core) is this? */
static inline reg_t r_mhartid()
{
80002208:	fe010113          	addi	sp,sp,-32
8000220c:	00812e23          	sw	s0,28(sp)
80002210:	02010413          	addi	s0,sp,32
	reg_t x;
	asm volatile("csrr %0, mhartid" : "=r" (x) );
80002214:	f14027f3          	csrr	a5,mhartid
80002218:	fef42623          	sw	a5,-20(s0)
	return x;
8000221c:	fec42783          	lw	a5,-20(s0)
}
80002220:	00078513          	mv	a0,a5
80002224:	01c12403          	lw	s0,28(sp)
80002228:	02010113          	addi	sp,sp,32
8000222c:	00008067          	ret

80002230 <start_kernel>:
extern void trap_init(void);
extern void plic_init(void);
extern void timer_init(void);

void start_kernel(void)
{
80002230:	fe010113          	addi	sp,sp,-32
80002234:	00112e23          	sw	ra,28(sp)
80002238:	00812c23          	sw	s0,24(sp)
8000223c:	02010413          	addi	s0,sp,32
    uart_init();
80002240:	579010ef          	jal	ra,80003fb8 <uart_init>
    uart_puts("Hello, RVOS!\n");
80002244:	800057b7          	lui	a5,0x80005
80002248:	5fc78513          	addi	a0,a5,1532 # 800055fc <_memory_end+0xf80055fc>
8000224c:	63d010ef          	jal	ra,80004088 <uart_puts>

    page_init();
80002250:	1cc010ef          	jal	ra,8000341c <page_init>

    trap_init();
80002254:	58d000ef          	jal	ra,80002fe0 <trap_init>

    plic_init();
80002258:	7ed010ef          	jal	ra,80004244 <plic_init>

    timer_init();
8000225c:	270020ef          	jal	ra,800044cc <timer_init>

    sched_init();
80002260:	114000ef          	jal	ra,80002374 <sched_init>

    memory_init(); // 初始化内存管理
80002264:	664010ef          	jal	ra,800038c8 <memory_init>

    os_main();
80002268:	0e0030ef          	jal	ra,80005348 <os_main>

    while (1)
    {
        SCHEDULE
8000226c:	f9dff0ef          	jal	ra,80002208 <r_mhartid>
80002270:	00050793          	mv	a5,a0
80002274:	fef42623          	sw	a5,-20(s0)
80002278:	fec42703          	lw	a4,-20(s0)
8000227c:	008007b7          	lui	a5,0x800
80002280:	00f707b3          	add	a5,a4,a5
80002284:	00279793          	slli	a5,a5,0x2
80002288:	00078713          	mv	a4,a5
8000228c:	00100793          	li	a5,1
80002290:	00f72023          	sw	a5,0(a4)
80002294:	fd9ff06f          	j	8000226c <start_kernel+0x3c>

80002298 <r_mhartid>:
{
80002298:	fe010113          	addi	sp,sp,-32
8000229c:	00812e23          	sw	s0,28(sp)
800022a0:	02010413          	addi	s0,sp,32
	asm volatile("csrr %0, mhartid" : "=r" (x) );
800022a4:	f14027f3          	csrr	a5,mhartid
800022a8:	fef42623          	sw	a5,-20(s0)
	return x;
800022ac:	fec42783          	lw	a5,-20(s0)
}
800022b0:	00078513          	mv	a0,a5
800022b4:	01c12403          	lw	s0,28(sp)
800022b8:	02010113          	addi	sp,sp,32
800022bc:	00008067          	ret

800022c0 <w_mscratch>:
	return x;
}

/* Machine Scratch register, for early trap handler */
static inline void w_mscratch(reg_t x)
{
800022c0:	fe010113          	addi	sp,sp,-32
800022c4:	00812e23          	sw	s0,28(sp)
800022c8:	02010413          	addi	s0,sp,32
800022cc:	fea42623          	sw	a0,-20(s0)
	asm volatile("csrw mscratch, %0" : : "r" (x));
800022d0:	fec42783          	lw	a5,-20(s0)
800022d4:	34079073          	csrw	mscratch,a5
}
800022d8:	00000013          	nop
800022dc:	01c12403          	lw	s0,28(sp)
800022e0:	02010113          	addi	sp,sp,32
800022e4:	00008067          	ret

800022e8 <r_mie>:
#define MIE_MEIE (1 << 11) // external
#define MIE_MTIE (1 << 7)  // timer
#define MIE_MSIE (1 << 3)  // software

static inline reg_t r_mie()
{
800022e8:	fe010113          	addi	sp,sp,-32
800022ec:	00812e23          	sw	s0,28(sp)
800022f0:	02010413          	addi	s0,sp,32
	reg_t x;
	asm volatile("csrr %0, mie" : "=r" (x) );
800022f4:	304027f3          	csrr	a5,mie
800022f8:	fef42623          	sw	a5,-20(s0)
	return x;
800022fc:	fec42783          	lw	a5,-20(s0)
}
80002300:	00078513          	mv	a0,a5
80002304:	01c12403          	lw	s0,28(sp)
80002308:	02010113          	addi	sp,sp,32
8000230c:	00008067          	ret

80002310 <w_mie>:

static inline void w_mie(reg_t x)
{
80002310:	fe010113          	addi	sp,sp,-32
80002314:	00812e23          	sw	s0,28(sp)
80002318:	02010413          	addi	s0,sp,32
8000231c:	fea42623          	sw	a0,-20(s0)
	asm volatile("csrw mie, %0" : : "r" (x));
80002320:	fec42783          	lw	a5,-20(s0)
80002324:	30479073          	csrw	mie,a5
}
80002328:	00000013          	nop
8000232c:	01c12403          	lw	s0,28(sp)
80002330:	02010113          	addi	sp,sp,32
80002334:	00008067          	ret

80002338 <kernel_scheduler>:
 */
static int _top = 0;
int _current = -1;

void kernel_scheduler()
{
80002338:	fe010113          	addi	sp,sp,-32
8000233c:	00112e23          	sw	ra,28(sp)
80002340:	00812c23          	sw	s0,24(sp)
80002344:	02010413          	addi	s0,sp,32
	while (1)
	{
		SCHEDULE
80002348:	f51ff0ef          	jal	ra,80002298 <r_mhartid>
8000234c:	00050793          	mv	a5,a0
80002350:	fef42623          	sw	a5,-20(s0)
80002354:	fec42703          	lw	a4,-20(s0)
80002358:	008007b7          	lui	a5,0x800
8000235c:	00f707b3          	add	a5,a4,a5
80002360:	00279793          	slli	a5,a5,0x2
80002364:	00078713          	mv	a4,a5
80002368:	00100793          	li	a5,1
8000236c:	00f72023          	sw	a5,0(a4)
80002370:	fd9ff06f          	j	80002348 <kernel_scheduler+0x10>

80002374 <sched_init>:
	}
}

// 在 `sched_init` 中创建内核调度任务
void sched_init()
{
80002374:	ff010113          	addi	sp,sp,-16
80002378:	00112623          	sw	ra,12(sp)
8000237c:	00812423          	sw	s0,8(sp)
80002380:	01010413          	addi	s0,sp,16
	w_mscratch((reg_t)&kernel_ctx);
80002384:	80b067b7          	lui	a5,0x80b06
80002388:	68878793          	addi	a5,a5,1672 # 80b06688 <_memory_end+0xf8b06688>
8000238c:	00078513          	mv	a0,a5
80002390:	f31ff0ef          	jal	ra,800022c0 <w_mscratch>
	w_mie(r_mie() | MIE_MSIE);
80002394:	f55ff0ef          	jal	ra,800022e8 <r_mie>
80002398:	00050793          	mv	a5,a0
8000239c:	0087e793          	ori	a5,a5,8
800023a0:	00078513          	mv	a0,a5
800023a4:	f6dff0ef          	jal	ra,80002310 <w_mie>

	// 初始化内核调度任务上下文
	kernel_ctx.sp = (reg_t)&kernel_stack_kernel[KERNEL_STACK_SIZE];
800023a8:	80b067b7          	lui	a5,0x80b06
800023ac:	07078713          	addi	a4,a5,112 # 80b06070 <_memory_end+0xf8b06070>
800023b0:	80b067b7          	lui	a5,0x80b06
800023b4:	68878793          	addi	a5,a5,1672 # 80b06688 <_memory_end+0xf8b06688>
800023b8:	00e7a223          	sw	a4,4(a5)
	kernel_ctx.pc = (reg_t)kernel_scheduler;
800023bc:	800027b7          	lui	a5,0x80002
800023c0:	33878713          	addi	a4,a5,824 # 80002338 <_memory_end+0xf8002338>
800023c4:	80b067b7          	lui	a5,0x80b06
800023c8:	68878793          	addi	a5,a5,1672 # 80b06688 <_memory_end+0xf8b06688>
800023cc:	06e7ae23          	sw	a4,124(a5)

	// task_create(kernel_scheduler, NULL, 0); // 优先级最高的内核任务

	// 其他初始化代码...
}
800023d0:	00000013          	nop
800023d4:	00c12083          	lw	ra,12(sp)
800023d8:	00812403          	lw	s0,8(sp)
800023dc:	01010113          	addi	sp,sp,16
800023e0:	00008067          	ret

800023e4 <back_to_os>:
void back_to_os(void)
{
800023e4:	ff010113          	addi	sp,sp,-16
800023e8:	00112623          	sw	ra,12(sp)
800023ec:	00812423          	sw	s0,8(sp)
800023f0:	01010413          	addi	s0,sp,16
	switch_to(&kernel_ctx);
800023f4:	80b067b7          	lui	a5,0x80b06
800023f8:	68878513          	addi	a0,a5,1672 # 80b06688 <_memory_end+0xf8b06688>
800023fc:	d85ff0ef          	jal	ra,80002180 <switch_to>
}
80002400:	00000013          	nop
80002404:	00c12083          	lw	ra,12(sp)
80002408:	00812403          	lw	s0,8(sp)
8000240c:	01010113          	addi	sp,sp,16
80002410:	00008067          	ret

80002414 <schedule>:

/*
 * implement a priority-based scheduler
 */
void schedule()
{
80002414:	fd010113          	addi	sp,sp,-48
80002418:	02112623          	sw	ra,44(sp)
8000241c:	02812423          	sw	s0,40(sp)
80002420:	03010413          	addi	s0,sp,48
	spin_lock();
80002424:	659000ef          	jal	ra,8000327c <spin_lock>
	if (_top <= 0)
80002428:	80b067b7          	lui	a5,0x80b06
8000242c:	70c7a783          	lw	a5,1804(a5) # 80b0670c <_memory_end+0xf8b0670c>
80002430:	00f04663          	bgtz	a5,8000243c <schedule+0x28>
	{
		spin_unlock();
80002434:	685000ef          	jal	ra,800032b8 <spin_unlock>
		return;
80002438:	2780006f          	j	800026b0 <schedule+0x29c>
	}

	int next_task = -1;
8000243c:	fff00793          	li	a5,-1
80002440:	fef42623          	sw	a5,-20(s0)
	uint8_t highest_priority = 255;
80002444:	fff00793          	li	a5,-1
80002448:	fef405a3          	sb	a5,-21(s0)
	if (tasks[_current].state == TASK_RUNNING)
8000244c:	800067b7          	lui	a5,0x80006
80002450:	0007a683          	lw	a3,0(a5) # 80006000 <_memory_end+0xf8006000>
80002454:	80b067b7          	lui	a5,0x80b06
80002458:	07078713          	addi	a4,a5,112 # 80b06070 <_memory_end+0xf8b06070>
8000245c:	09c00793          	li	a5,156
80002460:	02f687b3          	mul	a5,a3,a5
80002464:	00f707b3          	add	a5,a4,a5
80002468:	0907a703          	lw	a4,144(a5)
8000246c:	00200793          	li	a5,2
80002470:	02f71463          	bne	a4,a5,80002498 <schedule+0x84>
		tasks[_current].state = TASK_READY;
80002474:	800067b7          	lui	a5,0x80006
80002478:	0007a683          	lw	a3,0(a5) # 80006000 <_memory_end+0xf8006000>
8000247c:	80b067b7          	lui	a5,0x80b06
80002480:	07078713          	addi	a4,a5,112 # 80b06070 <_memory_end+0xf8b06070>
80002484:	09c00793          	li	a5,156
80002488:	02f687b3          	mul	a5,a3,a5
8000248c:	00f707b3          	add	a5,a4,a5
80002490:	00100713          	li	a4,1
80002494:	08e7a823          	sw	a4,144(a5)

	// 找到最高优先级
	for (int i = 0; i < _top; i++)
80002498:	fe042223          	sw	zero,-28(s0)
8000249c:	0780006f          	j	80002514 <schedule+0x100>
	{
		if (tasks[i].state == TASK_READY && tasks[i].priority < highest_priority)
800024a0:	80b067b7          	lui	a5,0x80b06
800024a4:	07078713          	addi	a4,a5,112 # 80b06070 <_memory_end+0xf8b06070>
800024a8:	fe442683          	lw	a3,-28(s0)
800024ac:	09c00793          	li	a5,156
800024b0:	02f687b3          	mul	a5,a3,a5
800024b4:	00f707b3          	add	a5,a4,a5
800024b8:	0907a703          	lw	a4,144(a5)
800024bc:	00100793          	li	a5,1
800024c0:	04f71463          	bne	a4,a5,80002508 <schedule+0xf4>
800024c4:	80b067b7          	lui	a5,0x80b06
800024c8:	07078713          	addi	a4,a5,112 # 80b06070 <_memory_end+0xf8b06070>
800024cc:	fe442683          	lw	a3,-28(s0)
800024d0:	09c00793          	li	a5,156
800024d4:	02f687b3          	mul	a5,a3,a5
800024d8:	00f707b3          	add	a5,a4,a5
800024dc:	08c7c783          	lbu	a5,140(a5)
800024e0:	feb44703          	lbu	a4,-21(s0)
800024e4:	02e7f263          	bgeu	a5,a4,80002508 <schedule+0xf4>
		{
			highest_priority = tasks[i].priority;
800024e8:	80b067b7          	lui	a5,0x80b06
800024ec:	07078713          	addi	a4,a5,112 # 80b06070 <_memory_end+0xf8b06070>
800024f0:	fe442683          	lw	a3,-28(s0)
800024f4:	09c00793          	li	a5,156
800024f8:	02f687b3          	mul	a5,a3,a5
800024fc:	00f707b3          	add	a5,a4,a5
80002500:	08c7c783          	lbu	a5,140(a5)
80002504:	fef405a3          	sb	a5,-21(s0)
	for (int i = 0; i < _top; i++)
80002508:	fe442783          	lw	a5,-28(s0)
8000250c:	00178793          	addi	a5,a5,1
80002510:	fef42223          	sw	a5,-28(s0)
80002514:	80b067b7          	lui	a5,0x80b06
80002518:	70c7a783          	lw	a5,1804(a5) # 80b0670c <_memory_end+0xf8b0670c>
8000251c:	fe442703          	lw	a4,-28(s0)
80002520:	f8f740e3          	blt	a4,a5,800024a0 <schedule+0x8c>
		}
	}

	// 在最高优先级中轮转选择下一个任务
	for (int i = 0; i < _top; i++)
80002524:	fe042023          	sw	zero,-32(s0)
80002528:	0880006f          	j	800025b0 <schedule+0x19c>
	{
		int idx = (_current + 1 + i) % _top;
8000252c:	800067b7          	lui	a5,0x80006
80002530:	0007a783          	lw	a5,0(a5) # 80006000 <_memory_end+0xf8006000>
80002534:	00178713          	addi	a4,a5,1
80002538:	fe042783          	lw	a5,-32(s0)
8000253c:	00f70733          	add	a4,a4,a5
80002540:	80b067b7          	lui	a5,0x80b06
80002544:	70c7a783          	lw	a5,1804(a5) # 80b0670c <_memory_end+0xf8b0670c>
80002548:	02f767b3          	rem	a5,a4,a5
8000254c:	fcf42c23          	sw	a5,-40(s0)
		if (tasks[idx].state == TASK_READY && tasks[idx].priority == highest_priority)
80002550:	80b067b7          	lui	a5,0x80b06
80002554:	07078713          	addi	a4,a5,112 # 80b06070 <_memory_end+0xf8b06070>
80002558:	fd842683          	lw	a3,-40(s0)
8000255c:	09c00793          	li	a5,156
80002560:	02f687b3          	mul	a5,a3,a5
80002564:	00f707b3          	add	a5,a4,a5
80002568:	0907a703          	lw	a4,144(a5)
8000256c:	00100793          	li	a5,1
80002570:	02f71a63          	bne	a4,a5,800025a4 <schedule+0x190>
80002574:	80b067b7          	lui	a5,0x80b06
80002578:	07078713          	addi	a4,a5,112 # 80b06070 <_memory_end+0xf8b06070>
8000257c:	fd842683          	lw	a3,-40(s0)
80002580:	09c00793          	li	a5,156
80002584:	02f687b3          	mul	a5,a3,a5
80002588:	00f707b3          	add	a5,a4,a5
8000258c:	08c7c783          	lbu	a5,140(a5)
80002590:	feb44703          	lbu	a4,-21(s0)
80002594:	00f71863          	bne	a4,a5,800025a4 <schedule+0x190>
		{
			next_task = idx;
80002598:	fd842783          	lw	a5,-40(s0)
8000259c:	fef42623          	sw	a5,-20(s0)
			break;
800025a0:	0200006f          	j	800025c0 <schedule+0x1ac>
	for (int i = 0; i < _top; i++)
800025a4:	fe042783          	lw	a5,-32(s0)
800025a8:	00178793          	addi	a5,a5,1
800025ac:	fef42023          	sw	a5,-32(s0)
800025b0:	80b067b7          	lui	a5,0x80b06
800025b4:	70c7a783          	lw	a5,1804(a5) # 80b0670c <_memory_end+0xf8b0670c>
800025b8:	fe042703          	lw	a4,-32(s0)
800025bc:	f6f748e3          	blt	a4,a5,8000252c <schedule+0x118>
		}
	}

	if (next_task == -1)
800025c0:	fec42703          	lw	a4,-20(s0)
800025c4:	fff00793          	li	a5,-1
800025c8:	06f71c63          	bne	a4,a5,80002640 <schedule+0x22c>
	{
		for (int i = 0; i < MAX_TASKS; i++)
800025cc:	fc042e23          	sw	zero,-36(s0)
800025d0:	0640006f          	j	80002634 <schedule+0x220>
		{
			if (tasks[i].state == TASK_READY && tasks[i].priority == highest_priority)
800025d4:	80b067b7          	lui	a5,0x80b06
800025d8:	07078713          	addi	a4,a5,112 # 80b06070 <_memory_end+0xf8b06070>
800025dc:	fdc42683          	lw	a3,-36(s0)
800025e0:	09c00793          	li	a5,156
800025e4:	02f687b3          	mul	a5,a3,a5
800025e8:	00f707b3          	add	a5,a4,a5
800025ec:	0907a703          	lw	a4,144(a5)
800025f0:	00100793          	li	a5,1
800025f4:	02f71a63          	bne	a4,a5,80002628 <schedule+0x214>
800025f8:	80b067b7          	lui	a5,0x80b06
800025fc:	07078713          	addi	a4,a5,112 # 80b06070 <_memory_end+0xf8b06070>
80002600:	fdc42683          	lw	a3,-36(s0)
80002604:	09c00793          	li	a5,156
80002608:	02f687b3          	mul	a5,a3,a5
8000260c:	00f707b3          	add	a5,a4,a5
80002610:	08c7c783          	lbu	a5,140(a5)
80002614:	feb44703          	lbu	a4,-21(s0)
80002618:	00f71863          	bne	a4,a5,80002628 <schedule+0x214>
			{
				next_task = i;
8000261c:	fdc42783          	lw	a5,-36(s0)
80002620:	fef42623          	sw	a5,-20(s0)
				break;
80002624:	01c0006f          	j	80002640 <schedule+0x22c>
		for (int i = 0; i < MAX_TASKS; i++)
80002628:	fdc42783          	lw	a5,-36(s0)
8000262c:	00178793          	addi	a5,a5,1
80002630:	fcf42e23          	sw	a5,-36(s0)
80002634:	fdc42703          	lw	a4,-36(s0)
80002638:	00900793          	li	a5,9
8000263c:	f8e7dce3          	bge	a5,a4,800025d4 <schedule+0x1c0>
			}
		}
	}

	if (next_task == -1)
80002640:	fec42703          	lw	a4,-20(s0)
80002644:	fff00793          	li	a5,-1
80002648:	00f71663          	bne	a4,a5,80002654 <schedule+0x240>
	{
		spin_unlock();
8000264c:	46d000ef          	jal	ra,800032b8 <spin_unlock>
		//panic("没有可调度的任务");
		return;
80002650:	0600006f          	j	800026b0 <schedule+0x29c>
	}

	_current = next_task;
80002654:	800067b7          	lui	a5,0x80006
80002658:	fec42703          	lw	a4,-20(s0)
8000265c:	00e7a023          	sw	a4,0(a5) # 80006000 <_memory_end+0xf8006000>
	struct context *next = &(tasks[_current].ctx);
80002660:	800067b7          	lui	a5,0x80006
80002664:	0007a703          	lw	a4,0(a5) # 80006000 <_memory_end+0xf8006000>
80002668:	09c00793          	li	a5,156
8000266c:	02f70733          	mul	a4,a4,a5
80002670:	80b067b7          	lui	a5,0x80b06
80002674:	07078793          	addi	a5,a5,112 # 80b06070 <_memory_end+0xf8b06070>
80002678:	00f707b3          	add	a5,a4,a5
8000267c:	fcf42a23          	sw	a5,-44(s0)

	tasks[_current].state = TASK_RUNNING;
80002680:	800067b7          	lui	a5,0x80006
80002684:	0007a683          	lw	a3,0(a5) # 80006000 <_memory_end+0xf8006000>
80002688:	80b067b7          	lui	a5,0x80b06
8000268c:	07078713          	addi	a4,a5,112 # 80b06070 <_memory_end+0xf8b06070>
80002690:	09c00793          	li	a5,156
80002694:	02f687b3          	mul	a5,a3,a5
80002698:	00f707b3          	add	a5,a4,a5
8000269c:	00200713          	li	a4,2
800026a0:	08e7a823          	sw	a4,144(a5)
	spin_unlock();
800026a4:	415000ef          	jal	ra,800032b8 <spin_unlock>
	switch_to(next);
800026a8:	fd442503          	lw	a0,-44(s0)
800026ac:	ad5ff0ef          	jal	ra,80002180 <switch_to>
}
800026b0:	02c12083          	lw	ra,44(sp)
800026b4:	02812403          	lw	s0,40(sp)
800026b8:	03010113          	addi	sp,sp,48
800026bc:	00008067          	ret

800026c0 <check_timeslice>:

void check_timeslice()
{
800026c0:	ff010113          	addi	sp,sp,-16
800026c4:	00112623          	sw	ra,12(sp)
800026c8:	00812423          	sw	s0,8(sp)
800026cc:	01010413          	addi	s0,sp,16
	tasks[_current].remaining_timeslice--;
800026d0:	800067b7          	lui	a5,0x80006
800026d4:	0007a703          	lw	a4,0(a5) # 80006000 <_memory_end+0xf8006000>
800026d8:	80b067b7          	lui	a5,0x80b06
800026dc:	07078693          	addi	a3,a5,112 # 80b06070 <_memory_end+0xf8b06070>
800026e0:	09c00793          	li	a5,156
800026e4:	02f707b3          	mul	a5,a4,a5
800026e8:	00f687b3          	add	a5,a3,a5
800026ec:	0987a783          	lw	a5,152(a5)
800026f0:	fff78693          	addi	a3,a5,-1
800026f4:	80b067b7          	lui	a5,0x80b06
800026f8:	07078613          	addi	a2,a5,112 # 80b06070 <_memory_end+0xf8b06070>
800026fc:	09c00793          	li	a5,156
80002700:	02f707b3          	mul	a5,a4,a5
80002704:	00f607b3          	add	a5,a2,a5
80002708:	08d7ac23          	sw	a3,152(a5)
	if (tasks[_current].remaining_timeslice == 0)
8000270c:	800067b7          	lui	a5,0x80006
80002710:	0007a683          	lw	a3,0(a5) # 80006000 <_memory_end+0xf8006000>
80002714:	80b067b7          	lui	a5,0x80b06
80002718:	07078713          	addi	a4,a5,112 # 80b06070 <_memory_end+0xf8b06070>
8000271c:	09c00793          	li	a5,156
80002720:	02f687b3          	mul	a5,a3,a5
80002724:	00f707b3          	add	a5,a4,a5
80002728:	0987a783          	lw	a5,152(a5)
8000272c:	04079463          	bnez	a5,80002774 <check_timeslice+0xb4>
	{
		tasks[_current].remaining_timeslice = tasks[_current].timeslice;
80002730:	800067b7          	lui	a5,0x80006
80002734:	0007a683          	lw	a3,0(a5) # 80006000 <_memory_end+0xf8006000>
80002738:	800067b7          	lui	a5,0x80006
8000273c:	0007a603          	lw	a2,0(a5) # 80006000 <_memory_end+0xf8006000>
80002740:	80b067b7          	lui	a5,0x80b06
80002744:	07078713          	addi	a4,a5,112 # 80b06070 <_memory_end+0xf8b06070>
80002748:	09c00793          	li	a5,156
8000274c:	02f687b3          	mul	a5,a3,a5
80002750:	00f707b3          	add	a5,a4,a5
80002754:	0947a703          	lw	a4,148(a5)
80002758:	80b067b7          	lui	a5,0x80b06
8000275c:	07078693          	addi	a3,a5,112 # 80b06070 <_memory_end+0xf8b06070>
80002760:	09c00793          	li	a5,156
80002764:	02f607b3          	mul	a5,a2,a5
80002768:	00f687b3          	add	a5,a3,a5
8000276c:	08e7ac23          	sw	a4,152(a5)
		task_yield();
80002770:	244000ef          	jal	ra,800029b4 <task_yield>
	}
}
80002774:	00000013          	nop
80002778:	00c12083          	lw	ra,12(sp)
8000277c:	00812403          	lw	s0,8(sp)
80002780:	01010113          	addi	sp,sp,16
80002784:	00008067          	ret

80002788 <task_create>:
 * RETURN VALUE
 *  0: success
 *  -1: if error occurred
 */
int task_create(void (*start_routin)(void *param), void *param, uint8_t priority, uint32_t timeslice)
{
80002788:	fe010113          	addi	sp,sp,-32
8000278c:	00112e23          	sw	ra,28(sp)
80002790:	00812c23          	sw	s0,24(sp)
80002794:	02010413          	addi	s0,sp,32
80002798:	fea42623          	sw	a0,-20(s0)
8000279c:	feb42423          	sw	a1,-24(s0)
800027a0:	00060793          	mv	a5,a2
800027a4:	fed42023          	sw	a3,-32(s0)
800027a8:	fef403a3          	sb	a5,-25(s0)
	spin_lock();
800027ac:	2d1000ef          	jal	ra,8000327c <spin_lock>
	if (_top >= MAX_TASKS)
800027b0:	80b067b7          	lui	a5,0x80b06
800027b4:	70c7a703          	lw	a4,1804(a5) # 80b0670c <_memory_end+0xf8b0670c>
800027b8:	00900793          	li	a5,9
800027bc:	00e7d863          	bge	a5,a4,800027cc <task_create+0x44>
	{
		spin_unlock();
800027c0:	2f9000ef          	jal	ra,800032b8 <spin_unlock>
		return -1;
800027c4:	fff00793          	li	a5,-1
800027c8:	1d80006f          	j	800029a0 <task_create+0x218>
	}

	tasks[_top].func = start_routin;
800027cc:	80b067b7          	lui	a5,0x80b06
800027d0:	70c7a683          	lw	a3,1804(a5) # 80b0670c <_memory_end+0xf8b0670c>
800027d4:	80b067b7          	lui	a5,0x80b06
800027d8:	07078713          	addi	a4,a5,112 # 80b06070 <_memory_end+0xf8b06070>
800027dc:	09c00793          	li	a5,156
800027e0:	02f687b3          	mul	a5,a3,a5
800027e4:	00f707b3          	add	a5,a4,a5
800027e8:	fec42703          	lw	a4,-20(s0)
800027ec:	08e7a423          	sw	a4,136(a5)
	tasks[_top].param = param;
800027f0:	80b067b7          	lui	a5,0x80b06
800027f4:	70c7a683          	lw	a3,1804(a5) # 80b0670c <_memory_end+0xf8b0670c>
800027f8:	80b067b7          	lui	a5,0x80b06
800027fc:	07078713          	addi	a4,a5,112 # 80b06070 <_memory_end+0xf8b06070>
80002800:	09c00793          	li	a5,156
80002804:	02f687b3          	mul	a5,a3,a5
80002808:	00f707b3          	add	a5,a4,a5
8000280c:	fe842703          	lw	a4,-24(s0)
80002810:	08e7a223          	sw	a4,132(a5)
	tasks[_top].ctx.sp = (reg_t)&task_stack[_top][STACK_SIZE] & ~0xF;
80002814:	80b067b7          	lui	a5,0x80b06
80002818:	70c7a783          	lw	a5,1804(a5) # 80b0670c <_memory_end+0xf8b0670c>
8000281c:	00178793          	addi	a5,a5,1
80002820:	01479713          	slli	a4,a5,0x14
80002824:	800067b7          	lui	a5,0x80006
80002828:	07078793          	addi	a5,a5,112 # 80006070 <_memory_end+0xf8006070>
8000282c:	00f707b3          	add	a5,a4,a5
80002830:	00078713          	mv	a4,a5
80002834:	80b067b7          	lui	a5,0x80b06
80002838:	70c7a603          	lw	a2,1804(a5) # 80b0670c <_memory_end+0xf8b0670c>
8000283c:	ff077713          	andi	a4,a4,-16
80002840:	80b067b7          	lui	a5,0x80b06
80002844:	07078693          	addi	a3,a5,112 # 80b06070 <_memory_end+0xf8b06070>
80002848:	09c00793          	li	a5,156
8000284c:	02f607b3          	mul	a5,a2,a5
80002850:	00f687b3          	add	a5,a3,a5
80002854:	00e7a223          	sw	a4,4(a5)
	tasks[_top].ctx.pc = (reg_t)start_routin;
80002858:	80b067b7          	lui	a5,0x80b06
8000285c:	70c7a603          	lw	a2,1804(a5) # 80b0670c <_memory_end+0xf8b0670c>
80002860:	fec42703          	lw	a4,-20(s0)
80002864:	80b067b7          	lui	a5,0x80b06
80002868:	07078693          	addi	a3,a5,112 # 80b06070 <_memory_end+0xf8b06070>
8000286c:	09c00793          	li	a5,156
80002870:	02f607b3          	mul	a5,a2,a5
80002874:	00f687b3          	add	a5,a3,a5
80002878:	06e7ae23          	sw	a4,124(a5)
	tasks[_top].ctx.a0 = param;
8000287c:	80b067b7          	lui	a5,0x80b06
80002880:	70c7a603          	lw	a2,1804(a5) # 80b0670c <_memory_end+0xf8b0670c>
80002884:	fe842703          	lw	a4,-24(s0)
80002888:	80b067b7          	lui	a5,0x80b06
8000288c:	07078693          	addi	a3,a5,112 # 80b06070 <_memory_end+0xf8b06070>
80002890:	09c00793          	li	a5,156
80002894:	02f607b3          	mul	a5,a2,a5
80002898:	00f687b3          	add	a5,a3,a5
8000289c:	02e7a223          	sw	a4,36(a5)
	// 初始化 mstatus 为用户模式，以防后续任务切换时出错
	tasks[_top].ctx.mstatus = (0 << 11) | (1 << 7); // MPP = 0 (用户模式), MPIE = 1
800028a0:	80b067b7          	lui	a5,0x80b06
800028a4:	70c7a683          	lw	a3,1804(a5) # 80b0670c <_memory_end+0xf8b0670c>
800028a8:	80b067b7          	lui	a5,0x80b06
800028ac:	07078713          	addi	a4,a5,112 # 80b06070 <_memory_end+0xf8b06070>
800028b0:	09c00793          	li	a5,156
800028b4:	02f687b3          	mul	a5,a3,a5
800028b8:	00f707b3          	add	a5,a4,a5
800028bc:	08000713          	li	a4,128
800028c0:	08e7a023          	sw	a4,128(a5)

	// 其他初始化代码...
	tasks[_top].priority = priority;
800028c4:	80b067b7          	lui	a5,0x80b06
800028c8:	70c7a683          	lw	a3,1804(a5) # 80b0670c <_memory_end+0xf8b0670c>
800028cc:	80b067b7          	lui	a5,0x80b06
800028d0:	07078713          	addi	a4,a5,112 # 80b06070 <_memory_end+0xf8b06070>
800028d4:	09c00793          	li	a5,156
800028d8:	02f687b3          	mul	a5,a3,a5
800028dc:	00f707b3          	add	a5,a4,a5
800028e0:	fe744703          	lbu	a4,-25(s0)
800028e4:	08e78623          	sb	a4,140(a5)
	tasks[_top].state = TASK_READY;
800028e8:	80b067b7          	lui	a5,0x80b06
800028ec:	70c7a683          	lw	a3,1804(a5) # 80b0670c <_memory_end+0xf8b0670c>
800028f0:	80b067b7          	lui	a5,0x80b06
800028f4:	07078713          	addi	a4,a5,112 # 80b06070 <_memory_end+0xf8b06070>
800028f8:	09c00793          	li	a5,156
800028fc:	02f687b3          	mul	a5,a3,a5
80002900:	00f707b3          	add	a5,a4,a5
80002904:	00100713          	li	a4,1
80002908:	08e7a823          	sw	a4,144(a5)
	tasks[_top].timeslice = timeslice;
8000290c:	80b067b7          	lui	a5,0x80b06
80002910:	70c7a683          	lw	a3,1804(a5) # 80b0670c <_memory_end+0xf8b0670c>
80002914:	80b067b7          	lui	a5,0x80b06
80002918:	07078713          	addi	a4,a5,112 # 80b06070 <_memory_end+0xf8b06070>
8000291c:	09c00793          	li	a5,156
80002920:	02f687b3          	mul	a5,a3,a5
80002924:	00f707b3          	add	a5,a4,a5
80002928:	fe042703          	lw	a4,-32(s0)
8000292c:	08e7aa23          	sw	a4,148(a5)
	tasks[_top].remaining_timeslice = timeslice;
80002930:	80b067b7          	lui	a5,0x80b06
80002934:	70c7a683          	lw	a3,1804(a5) # 80b0670c <_memory_end+0xf8b0670c>
80002938:	80b067b7          	lui	a5,0x80b06
8000293c:	07078713          	addi	a4,a5,112 # 80b06070 <_memory_end+0xf8b06070>
80002940:	09c00793          	li	a5,156
80002944:	02f687b3          	mul	a5,a3,a5
80002948:	00f707b3          	add	a5,a4,a5
8000294c:	fe042703          	lw	a4,-32(s0)
80002950:	08e7ac23          	sw	a4,152(a5)

	printf("创建任务: %p\n", (void *)tasks[_top].ctx.pc);
80002954:	80b067b7          	lui	a5,0x80b06
80002958:	70c7a683          	lw	a3,1804(a5) # 80b0670c <_memory_end+0xf8b0670c>
8000295c:	80b067b7          	lui	a5,0x80b06
80002960:	07078713          	addi	a4,a5,112 # 80b06070 <_memory_end+0xf8b06070>
80002964:	09c00793          	li	a5,156
80002968:	02f687b3          	mul	a5,a3,a5
8000296c:	00f707b3          	add	a5,a4,a5
80002970:	07c7a783          	lw	a5,124(a5)
80002974:	00078593          	mv	a1,a5
80002978:	800057b7          	lui	a5,0x80005
8000297c:	60c78513          	addi	a0,a5,1548 # 8000560c <_memory_end+0xf800560c>
80002980:	488020ef          	jal	ra,80004e08 <printf>

	_top++;
80002984:	80b067b7          	lui	a5,0x80b06
80002988:	70c7a783          	lw	a5,1804(a5) # 80b0670c <_memory_end+0xf8b0670c>
8000298c:	00178713          	addi	a4,a5,1
80002990:	80b067b7          	lui	a5,0x80b06
80002994:	70e7a623          	sw	a4,1804(a5) # 80b0670c <_memory_end+0xf8b0670c>

	spin_unlock();
80002998:	121000ef          	jal	ra,800032b8 <spin_unlock>
	return 0;
8000299c:	00000793          	li	a5,0
}
800029a0:	00078513          	mv	a0,a5
800029a4:	01c12083          	lw	ra,28(sp)
800029a8:	01812403          	lw	s0,24(sp)
800029ac:	02010113          	addi	sp,sp,32
800029b0:	00008067          	ret

800029b4 <task_yield>:
 * DESCRIPTION
 *  task_yield() causes the calling task to relinquish the CPU and a new
 *  task gets to run.
 */
void task_yield()
{
800029b4:	fe010113          	addi	sp,sp,-32
800029b8:	00112e23          	sw	ra,28(sp)
800029bc:	00812c23          	sw	s0,24(sp)
800029c0:	02010413          	addi	s0,sp,32
	spin_lock();
800029c4:	0b9000ef          	jal	ra,8000327c <spin_lock>
	if (_current != -1 && tasks[_current].state == TASK_RUNNING)
800029c8:	800067b7          	lui	a5,0x80006
800029cc:	0007a703          	lw	a4,0(a5) # 80006000 <_memory_end+0xf8006000>
800029d0:	fff00793          	li	a5,-1
800029d4:	04f70863          	beq	a4,a5,80002a24 <task_yield+0x70>
800029d8:	800067b7          	lui	a5,0x80006
800029dc:	0007a683          	lw	a3,0(a5) # 80006000 <_memory_end+0xf8006000>
800029e0:	80b067b7          	lui	a5,0x80b06
800029e4:	07078713          	addi	a4,a5,112 # 80b06070 <_memory_end+0xf8b06070>
800029e8:	09c00793          	li	a5,156
800029ec:	02f687b3          	mul	a5,a3,a5
800029f0:	00f707b3          	add	a5,a4,a5
800029f4:	0907a703          	lw	a4,144(a5)
800029f8:	00200793          	li	a5,2
800029fc:	02f71463          	bne	a4,a5,80002a24 <task_yield+0x70>
	{
		tasks[_current].state = TASK_READY;
80002a00:	800067b7          	lui	a5,0x80006
80002a04:	0007a683          	lw	a3,0(a5) # 80006000 <_memory_end+0xf8006000>
80002a08:	80b067b7          	lui	a5,0x80b06
80002a0c:	07078713          	addi	a4,a5,112 # 80b06070 <_memory_end+0xf8b06070>
80002a10:	09c00793          	li	a5,156
80002a14:	02f687b3          	mul	a5,a3,a5
80002a18:	00f707b3          	add	a5,a4,a5
80002a1c:	00100713          	li	a4,1
80002a20:	08e7a823          	sw	a4,144(a5)
	}
	spin_unlock();
80002a24:	095000ef          	jal	ra,800032b8 <spin_unlock>

	// 触发软件中断让调度器介入
	int hart = r_mhartid();
80002a28:	871ff0ef          	jal	ra,80002298 <r_mhartid>
80002a2c:	00050793          	mv	a5,a0
80002a30:	fef42623          	sw	a5,-20(s0)
	*(uint32_t *)CLINT_MSIP(hart) = 1;
80002a34:	fec42703          	lw	a4,-20(s0)
80002a38:	008007b7          	lui	a5,0x800
80002a3c:	00f707b3          	add	a5,a4,a5
80002a40:	00279793          	slli	a5,a5,0x2
80002a44:	00078713          	mv	a4,a5
80002a48:	00100793          	li	a5,1
80002a4c:	00f72023          	sw	a5,0(a4)
}
80002a50:	00000013          	nop
80002a54:	01c12083          	lw	ra,28(sp)
80002a58:	01812403          	lw	s0,24(sp)
80002a5c:	02010113          	addi	sp,sp,32
80002a60:	00008067          	ret

80002a64 <task_exit>:
/*
 * DESCRIPTION
 *  task_exit() causes the calling task to exit and be removed from the scheduler.
 */
void task_exit()
{
80002a64:	fe010113          	addi	sp,sp,-32
80002a68:	00112e23          	sw	ra,28(sp)
80002a6c:	00812c23          	sw	s0,24(sp)
80002a70:	02010413          	addi	s0,sp,32
	spin_lock();
80002a74:	009000ef          	jal	ra,8000327c <spin_lock>
	if (_current != -1)
80002a78:	800067b7          	lui	a5,0x80006
80002a7c:	0007a703          	lw	a4,0(a5) # 80006000 <_memory_end+0xf8006000>
80002a80:	fff00793          	li	a5,-1
80002a84:	02f70a63          	beq	a4,a5,80002ab8 <task_exit+0x54>
	{
		tasks[_current].state = TASK_EXITED;
80002a88:	800067b7          	lui	a5,0x80006
80002a8c:	0007a683          	lw	a3,0(a5) # 80006000 <_memory_end+0xf8006000>
80002a90:	80b067b7          	lui	a5,0x80b06
80002a94:	07078713          	addi	a4,a5,112 # 80b06070 <_memory_end+0xf8b06070>
80002a98:	09c00793          	li	a5,156
80002a9c:	02f687b3          	mul	a5,a3,a5
80002aa0:	00f707b3          	add	a5,a4,a5
80002aa4:	00400713          	li	a4,4
80002aa8:	08e7a823          	sw	a4,144(a5)
		uart_puts("任务已退出，并被调度器回收。\n");
80002aac:	800057b7          	lui	a5,0x80005
80002ab0:	62078513          	addi	a0,a5,1568 # 80005620 <_memory_end+0xf8005620>
80002ab4:	5d4010ef          	jal	ra,80004088 <uart_puts>
	}
	spin_unlock();
80002ab8:	001000ef          	jal	ra,800032b8 <spin_unlock>
	SCHEDULE
80002abc:	fdcff0ef          	jal	ra,80002298 <r_mhartid>
80002ac0:	00050793          	mv	a5,a0
80002ac4:	fef42623          	sw	a5,-20(s0)
80002ac8:	fec42703          	lw	a4,-20(s0)
80002acc:	008007b7          	lui	a5,0x800
80002ad0:	00f707b3          	add	a5,a4,a5
80002ad4:	00279793          	slli	a5,a5,0x2
80002ad8:	00078713          	mv	a4,a5
80002adc:	00100793          	li	a5,1
80002ae0:	00f72023          	sw	a5,0(a4)
	// 如果所有任务都退出，内核可以进入空闲状态或重新启动
	panic("所有任务已退出，系统终止。");
80002ae4:	800057b7          	lui	a5,0x80005
80002ae8:	64c78513          	addi	a0,a5,1612 # 8000564c <_memory_end+0xf800564c>
80002aec:	390020ef          	jal	ra,80004e7c <panic>
}
80002af0:	00000013          	nop
80002af4:	01c12083          	lw	ra,28(sp)
80002af8:	01812403          	lw	s0,24(sp)
80002afc:	02010113          	addi	sp,sp,32
80002b00:	00008067          	ret

80002b04 <wake_up_task>:

// 定时器回调函数，用于唤醒被延迟的任务
void wake_up_task(void *arg)
{
80002b04:	fd010113          	addi	sp,sp,-48
80002b08:	02812623          	sw	s0,44(sp)
80002b0c:	03010413          	addi	s0,sp,48
80002b10:	fca42e23          	sw	a0,-36(s0)
	int task_id = (int)arg;
80002b14:	fdc42783          	lw	a5,-36(s0)
80002b18:	fef42623          	sw	a5,-20(s0)

	// spin_lock();
	if (task_id >= 0 && task_id < MAX_TASKS && tasks[task_id].state == TASK_SLEEPING)
80002b1c:	fec42783          	lw	a5,-20(s0)
80002b20:	0407ca63          	bltz	a5,80002b74 <wake_up_task+0x70>
80002b24:	fec42703          	lw	a4,-20(s0)
80002b28:	00900793          	li	a5,9
80002b2c:	04e7c463          	blt	a5,a4,80002b74 <wake_up_task+0x70>
80002b30:	80b067b7          	lui	a5,0x80b06
80002b34:	07078713          	addi	a4,a5,112 # 80b06070 <_memory_end+0xf8b06070>
80002b38:	fec42683          	lw	a3,-20(s0)
80002b3c:	09c00793          	li	a5,156
80002b40:	02f687b3          	mul	a5,a3,a5
80002b44:	00f707b3          	add	a5,a4,a5
80002b48:	0907a703          	lw	a4,144(a5)
80002b4c:	00300793          	li	a5,3
80002b50:	02f71263          	bne	a4,a5,80002b74 <wake_up_task+0x70>
	{
		tasks[task_id].state = TASK_READY;
80002b54:	80b067b7          	lui	a5,0x80b06
80002b58:	07078713          	addi	a4,a5,112 # 80b06070 <_memory_end+0xf8b06070>
80002b5c:	fec42683          	lw	a3,-20(s0)
80002b60:	09c00793          	li	a5,156
80002b64:	02f687b3          	mul	a5,a3,a5
80002b68:	00f707b3          	add	a5,a4,a5
80002b6c:	00100713          	li	a4,1
80002b70:	08e7a823          	sw	a4,144(a5)
	}
	// spin_unlock();
}
80002b74:	00000013          	nop
80002b78:	02c12403          	lw	s0,44(sp)
80002b7c:	03010113          	addi	sp,sp,48
80002b80:	00008067          	ret

80002b84 <task_delay>:
 * DESCRIPTION
 *  task_delay() causes the calling task to sleep for a specified number of ticks.
 *  - ticks: 延迟的时钟周期数
 */
void task_delay(uint32_t ticks)
{
80002b84:	fd010113          	addi	sp,sp,-48
80002b88:	02112623          	sw	ra,44(sp)
80002b8c:	02812423          	sw	s0,40(sp)
80002b90:	03010413          	addi	s0,sp,48
80002b94:	fca42e23          	sw	a0,-36(s0)
    spin_lock();
80002b98:	6e4000ef          	jal	ra,8000327c <spin_lock>
    if (_current == -1)
80002b9c:	800067b7          	lui	a5,0x80006
80002ba0:	0007a703          	lw	a4,0(a5) # 80006000 <_memory_end+0xf8006000>
80002ba4:	fff00793          	li	a5,-1
80002ba8:	00f71663          	bne	a4,a5,80002bb4 <task_delay+0x30>
    {
        spin_unlock();
80002bac:	70c000ef          	jal	ra,800032b8 <spin_unlock>
        return;
80002bb0:	0800006f          	j	80002c30 <task_delay+0xac>
    }

    int task_id = _current;
80002bb4:	800067b7          	lui	a5,0x80006
80002bb8:	0007a783          	lw	a5,0(a5) # 80006000 <_memory_end+0xf8006000>
80002bbc:	fef42623          	sw	a5,-20(s0)
    tasks[task_id].state = TASK_SLEEPING;
80002bc0:	80b067b7          	lui	a5,0x80b06
80002bc4:	07078713          	addi	a4,a5,112 # 80b06070 <_memory_end+0xf8b06070>
80002bc8:	fec42683          	lw	a3,-20(s0)
80002bcc:	09c00793          	li	a5,156
80002bd0:	02f687b3          	mul	a5,a3,a5
80002bd4:	00f707b3          	add	a5,a4,a5
80002bd8:	00300713          	li	a4,3
80002bdc:	08e7a823          	sw	a4,144(a5)
    spin_unlock(); // 解锁，因为timer_create可能会阻塞
80002be0:	6d8000ef          	jal	ra,800032b8 <spin_unlock>

    // 创建定时器，ticks 后调用 wake_up_task 以唤醒任务
    if (timer_create(wake_up_task, (void *)task_id, ticks) == NULL)
80002be4:	fec42783          	lw	a5,-20(s0)
80002be8:	fdc42603          	lw	a2,-36(s0)
80002bec:	00078593          	mv	a1,a5
80002bf0:	800037b7          	lui	a5,0x80003
80002bf4:	b0478513          	addi	a0,a5,-1276 # 80002b04 <_memory_end+0xf8002b04>
80002bf8:	13d010ef          	jal	ra,80004534 <timer_create>
80002bfc:	00050793          	mv	a5,a0
80002c00:	02079663          	bnez	a5,80002c2c <task_delay+0xa8>
    {
        // 定时器创建失败，恢复任务状态为就绪
        spin_lock();
80002c04:	678000ef          	jal	ra,8000327c <spin_lock>
        tasks[task_id].state = TASK_READY;
80002c08:	80b067b7          	lui	a5,0x80b06
80002c0c:	07078713          	addi	a4,a5,112 # 80b06070 <_memory_end+0xf8b06070>
80002c10:	fec42683          	lw	a3,-20(s0)
80002c14:	09c00793          	li	a5,156
80002c18:	02f687b3          	mul	a5,a3,a5
80002c1c:	00f707b3          	add	a5,a4,a5
80002c20:	00100713          	li	a4,1
80002c24:	08e7a823          	sw	a4,144(a5)
        spin_unlock();
80002c28:	690000ef          	jal	ra,800032b8 <spin_unlock>
    }
    
    // 让出 CPU，触发调度
    task_yield();
80002c2c:	d89ff0ef          	jal	ra,800029b4 <task_yield>
}
80002c30:	02c12083          	lw	ra,44(sp)
80002c34:	02812403          	lw	s0,40(sp)
80002c38:	03010113          	addi	sp,sp,48
80002c3c:	00008067          	ret

80002c40 <get_task_func_name>:

/* 获取任务函数名称 */
static const char *get_task_func_name(void (*func)(void *))
{
80002c40:	fe010113          	addi	sp,sp,-32
80002c44:	00812e23          	sw	s0,28(sp)
80002c48:	02010413          	addi	s0,sp,32
80002c4c:	fea42623          	sw	a0,-20(s0)
	if (func == user_task0)
80002c50:	fec42703          	lw	a4,-20(s0)
80002c54:	800057b7          	lui	a5,0x80005
80002c58:	18478793          	addi	a5,a5,388 # 80005184 <_memory_end+0xf8005184>
80002c5c:	00f71863          	bne	a4,a5,80002c6c <get_task_func_name+0x2c>
		return "user_task0";
80002c60:	800057b7          	lui	a5,0x80005
80002c64:	67478793          	addi	a5,a5,1652 # 80005674 <_memory_end+0xf8005674>
80002c68:	07c0006f          	j	80002ce4 <get_task_func_name+0xa4>
	if (func == user_task1)
80002c6c:	fec42703          	lw	a4,-20(s0)
80002c70:	800057b7          	lui	a5,0x80005
80002c74:	1bc78793          	addi	a5,a5,444 # 800051bc <_memory_end+0xf80051bc>
80002c78:	00f71863          	bne	a4,a5,80002c88 <get_task_func_name+0x48>
		return "user_task1";
80002c7c:	800057b7          	lui	a5,0x80005
80002c80:	68078793          	addi	a5,a5,1664 # 80005680 <_memory_end+0xf8005680>
80002c84:	0600006f          	j	80002ce4 <get_task_func_name+0xa4>
	if (func == user_task)
80002c88:	fec42703          	lw	a4,-20(s0)
80002c8c:	800057b7          	lui	a5,0x80005
80002c90:	1f478793          	addi	a5,a5,500 # 800051f4 <_memory_end+0xf80051f4>
80002c94:	00f71863          	bne	a4,a5,80002ca4 <get_task_func_name+0x64>
		return "user_task";
80002c98:	800057b7          	lui	a5,0x80005
80002c9c:	68c78793          	addi	a5,a5,1676 # 8000568c <_memory_end+0xf800568c>
80002ca0:	0440006f          	j	80002ce4 <get_task_func_name+0xa4>
	if (func == timer_handler)
80002ca4:	fec42703          	lw	a4,-20(s0)
80002ca8:	800047b7          	lui	a5,0x80004
80002cac:	70478793          	addi	a5,a5,1796 # 80004704 <_memory_end+0xf8004704>
80002cb0:	00f71863          	bne	a4,a5,80002cc0 <get_task_func_name+0x80>
		return "timer_handler";
80002cb4:	800057b7          	lui	a5,0x80005
80002cb8:	69878793          	addi	a5,a5,1688 # 80005698 <_memory_end+0xf8005698>
80002cbc:	0280006f          	j	80002ce4 <get_task_func_name+0xa4>
	if (func == task_yield)
80002cc0:	fec42703          	lw	a4,-20(s0)
80002cc4:	800037b7          	lui	a5,0x80003
80002cc8:	9b478793          	addi	a5,a5,-1612 # 800029b4 <_memory_end+0xf80029b4>
80002ccc:	00f71863          	bne	a4,a5,80002cdc <get_task_func_name+0x9c>
		return "task_yield";
80002cd0:	800057b7          	lui	a5,0x80005
80002cd4:	6a878793          	addi	a5,a5,1704 # 800056a8 <_memory_end+0xf80056a8>
80002cd8:	00c0006f          	j	80002ce4 <get_task_func_name+0xa4>
	return "unknown";
80002cdc:	800057b7          	lui	a5,0x80005
80002ce0:	6b478793          	addi	a5,a5,1716 # 800056b4 <_memory_end+0xf80056b4>
}
80002ce4:	00078513          	mv	a0,a5
80002ce8:	01c12403          	lw	s0,28(sp)
80002cec:	02010113          	addi	sp,sp,32
80002cf0:	00008067          	ret

80002cf4 <print_tasks>:

/* 打印任务槽信息的调试函数 */
void print_tasks(void)
{
80002cf4:	fe010113          	addi	sp,sp,-32
80002cf8:	00112e23          	sw	ra,28(sp)
80002cfc:	00812c23          	sw	s0,24(sp)
80002d00:	02010413          	addi	s0,sp,32
	printf("\n=== Tasks Debug Info ===\n");
80002d04:	800057b7          	lui	a5,0x80005
80002d08:	6bc78513          	addi	a0,a5,1724 # 800056bc <_memory_end+0xf80056bc>
80002d0c:	0fc020ef          	jal	ra,80004e08 <printf>

	int active_tasks = 0;
80002d10:	fe042623          	sw	zero,-20(s0)
	for (int i = 0; i < MAX_TASKS; i++)
80002d14:	fe042423          	sw	zero,-24(s0)
80002d18:	1e00006f          	j	80002ef8 <print_tasks+0x204>
	{
		if (tasks[i].state != TASK_INVALID)
80002d1c:	80b067b7          	lui	a5,0x80b06
80002d20:	07078713          	addi	a4,a5,112 # 80b06070 <_memory_end+0xf8b06070>
80002d24:	fe842683          	lw	a3,-24(s0)
80002d28:	09c00793          	li	a5,156
80002d2c:	02f687b3          	mul	a5,a3,a5
80002d30:	00f707b3          	add	a5,a4,a5
80002d34:	0907a783          	lw	a5,144(a5)
80002d38:	1a078a63          	beqz	a5,80002eec <print_tasks+0x1f8>
		{
			printf("Task[%d]:\n", i);
80002d3c:	fe842583          	lw	a1,-24(s0)
80002d40:	800057b7          	lui	a5,0x80005
80002d44:	6d878513          	addi	a0,a5,1752 # 800056d8 <_memory_end+0xf80056d8>
80002d48:	0c0020ef          	jal	ra,80004e08 <printf>
			printf("  Function: %s\n", get_task_func_name(tasks[i].func));
80002d4c:	80b067b7          	lui	a5,0x80b06
80002d50:	07078713          	addi	a4,a5,112 # 80b06070 <_memory_end+0xf8b06070>
80002d54:	fe842683          	lw	a3,-24(s0)
80002d58:	09c00793          	li	a5,156
80002d5c:	02f687b3          	mul	a5,a3,a5
80002d60:	00f707b3          	add	a5,a4,a5
80002d64:	0887a783          	lw	a5,136(a5)
80002d68:	00078513          	mv	a0,a5
80002d6c:	ed5ff0ef          	jal	ra,80002c40 <get_task_func_name>
80002d70:	00050793          	mv	a5,a0
80002d74:	00078593          	mv	a1,a5
80002d78:	800057b7          	lui	a5,0x80005
80002d7c:	6e478513          	addi	a0,a5,1764 # 800056e4 <_memory_end+0xf80056e4>
80002d80:	088020ef          	jal	ra,80004e08 <printf>
			if (tasks[i].func == user_task)
80002d84:	80b067b7          	lui	a5,0x80b06
80002d88:	07078713          	addi	a4,a5,112 # 80b06070 <_memory_end+0xf8b06070>
80002d8c:	fe842683          	lw	a3,-24(s0)
80002d90:	09c00793          	li	a5,156
80002d94:	02f687b3          	mul	a5,a3,a5
80002d98:	00f707b3          	add	a5,a4,a5
80002d9c:	0887a703          	lw	a4,136(a5)
80002da0:	800057b7          	lui	a5,0x80005
80002da4:	1f478793          	addi	a5,a5,500 # 800051f4 <_memory_end+0xf80051f4>
80002da8:	02f71a63          	bne	a4,a5,80002ddc <print_tasks+0xe8>
			{
				int task_id = (int)(tasks[i].param);
80002dac:	80b067b7          	lui	a5,0x80b06
80002db0:	07078713          	addi	a4,a5,112 # 80b06070 <_memory_end+0xf8b06070>
80002db4:	fe842683          	lw	a3,-24(s0)
80002db8:	09c00793          	li	a5,156
80002dbc:	02f687b3          	mul	a5,a3,a5
80002dc0:	00f707b3          	add	a5,a4,a5
80002dc4:	0847a783          	lw	a5,132(a5)
80002dc8:	fef42023          	sw	a5,-32(s0)
				printf("  Task ID: %d\n", task_id);
80002dcc:	fe042583          	lw	a1,-32(s0)
80002dd0:	800057b7          	lui	a5,0x80005
80002dd4:	6f478513          	addi	a0,a5,1780 # 800056f4 <_memory_end+0xf80056f4>
80002dd8:	030020ef          	jal	ra,80004e08 <printf>
			}
			printf("  Priority: %d\n", tasks[i].priority);
80002ddc:	80b067b7          	lui	a5,0x80b06
80002de0:	07078713          	addi	a4,a5,112 # 80b06070 <_memory_end+0xf8b06070>
80002de4:	fe842683          	lw	a3,-24(s0)
80002de8:	09c00793          	li	a5,156
80002dec:	02f687b3          	mul	a5,a3,a5
80002df0:	00f707b3          	add	a5,a4,a5
80002df4:	08c7c783          	lbu	a5,140(a5)
80002df8:	00078593          	mv	a1,a5
80002dfc:	800057b7          	lui	a5,0x80005
80002e00:	70478513          	addi	a0,a5,1796 # 80005704 <_memory_end+0xf8005704>
80002e04:	004020ef          	jal	ra,80004e08 <printf>

			const char *state_str;
			switch (tasks[i].state)
80002e08:	80b067b7          	lui	a5,0x80b06
80002e0c:	07078713          	addi	a4,a5,112 # 80b06070 <_memory_end+0xf8b06070>
80002e10:	fe842683          	lw	a3,-24(s0)
80002e14:	09c00793          	li	a5,156
80002e18:	02f687b3          	mul	a5,a3,a5
80002e1c:	00f707b3          	add	a5,a4,a5
80002e20:	0907a783          	lw	a5,144(a5)
80002e24:	00400713          	li	a4,4
80002e28:	06e78063          	beq	a5,a4,80002e88 <print_tasks+0x194>
80002e2c:	00400713          	li	a4,4
80002e30:	06f76463          	bltu	a4,a5,80002e98 <print_tasks+0x1a4>
80002e34:	00300713          	li	a4,3
80002e38:	04e78063          	beq	a5,a4,80002e78 <print_tasks+0x184>
80002e3c:	00300713          	li	a4,3
80002e40:	04f76c63          	bltu	a4,a5,80002e98 <print_tasks+0x1a4>
80002e44:	00100713          	li	a4,1
80002e48:	00e78863          	beq	a5,a4,80002e58 <print_tasks+0x164>
80002e4c:	00200713          	li	a4,2
80002e50:	00e78c63          	beq	a5,a4,80002e68 <print_tasks+0x174>
80002e54:	0440006f          	j	80002e98 <print_tasks+0x1a4>
			{
			case TASK_READY:
				state_str = "READY";
80002e58:	800057b7          	lui	a5,0x80005
80002e5c:	71478793          	addi	a5,a5,1812 # 80005714 <_memory_end+0xf8005714>
80002e60:	fef42223          	sw	a5,-28(s0)
				break;
80002e64:	0440006f          	j	80002ea8 <print_tasks+0x1b4>
			case TASK_RUNNING:
				state_str = "RUNNING";
80002e68:	800057b7          	lui	a5,0x80005
80002e6c:	71c78793          	addi	a5,a5,1820 # 8000571c <_memory_end+0xf800571c>
80002e70:	fef42223          	sw	a5,-28(s0)
				break;
80002e74:	0340006f          	j	80002ea8 <print_tasks+0x1b4>
			case TASK_SLEEPING:
				state_str = "SLEEPING";
80002e78:	800057b7          	lui	a5,0x80005
80002e7c:	72478793          	addi	a5,a5,1828 # 80005724 <_memory_end+0xf8005724>
80002e80:	fef42223          	sw	a5,-28(s0)
				break;
80002e84:	0240006f          	j	80002ea8 <print_tasks+0x1b4>
			case TASK_EXITED:
				state_str = "EXITED";
80002e88:	800057b7          	lui	a5,0x80005
80002e8c:	73078793          	addi	a5,a5,1840 # 80005730 <_memory_end+0xf8005730>
80002e90:	fef42223          	sw	a5,-28(s0)
				break;
80002e94:	0140006f          	j	80002ea8 <print_tasks+0x1b4>
			default:
				state_str = "UNKNOWN";
80002e98:	800057b7          	lui	a5,0x80005
80002e9c:	73878793          	addi	a5,a5,1848 # 80005738 <_memory_end+0xf8005738>
80002ea0:	fef42223          	sw	a5,-28(s0)
				break;
80002ea4:	00000013          	nop
			}
			printf("  State: %s\n", state_str);
80002ea8:	fe442583          	lw	a1,-28(s0)
80002eac:	800057b7          	lui	a5,0x80005
80002eb0:	74078513          	addi	a0,a5,1856 # 80005740 <_memory_end+0xf8005740>
80002eb4:	755010ef          	jal	ra,80004e08 <printf>
			if (i == _current)
80002eb8:	800067b7          	lui	a5,0x80006
80002ebc:	0007a783          	lw	a5,0(a5) # 80006000 <_memory_end+0xf8006000>
80002ec0:	fe842703          	lw	a4,-24(s0)
80002ec4:	00f71863          	bne	a4,a5,80002ed4 <print_tasks+0x1e0>
			{
				printf("  [CURRENT]\n");
80002ec8:	800057b7          	lui	a5,0x80005
80002ecc:	75078513          	addi	a0,a5,1872 # 80005750 <_memory_end+0xf8005750>
80002ed0:	739010ef          	jal	ra,80004e08 <printf>
			}
			printf("------------------\n");
80002ed4:	800057b7          	lui	a5,0x80005
80002ed8:	76078513          	addi	a0,a5,1888 # 80005760 <_memory_end+0xf8005760>
80002edc:	72d010ef          	jal	ra,80004e08 <printf>
			active_tasks++;
80002ee0:	fec42783          	lw	a5,-20(s0)
80002ee4:	00178793          	addi	a5,a5,1
80002ee8:	fef42623          	sw	a5,-20(s0)
	for (int i = 0; i < MAX_TASKS; i++)
80002eec:	fe842783          	lw	a5,-24(s0)
80002ef0:	00178793          	addi	a5,a5,1
80002ef4:	fef42423          	sw	a5,-24(s0)
80002ef8:	fe842703          	lw	a4,-24(s0)
80002efc:	00900793          	li	a5,9
80002f00:	e0e7dee3          	bge	a5,a4,80002d1c <print_tasks+0x28>
		}
	}
	printf("Active tasks: %d, Current: %d\n", active_tasks, _current);
80002f04:	800067b7          	lui	a5,0x80006
80002f08:	0007a783          	lw	a5,0(a5) # 80006000 <_memory_end+0xf8006000>
80002f0c:	00078613          	mv	a2,a5
80002f10:	fec42583          	lw	a1,-20(s0)
80002f14:	800057b7          	lui	a5,0x80005
80002f18:	77478513          	addi	a0,a5,1908 # 80005774 <_memory_end+0xf8005774>
80002f1c:	6ed010ef          	jal	ra,80004e08 <printf>
	printf("=== End of Tasks Info ===\n\n");
80002f20:	800057b7          	lui	a5,0x80005
80002f24:	79478513          	addi	a0,a5,1940 # 80005794 <_memory_end+0xf8005794>
80002f28:	6e1010ef          	jal	ra,80004e08 <printf>
80002f2c:	00000013          	nop
80002f30:	01c12083          	lw	ra,28(sp)
80002f34:	01812403          	lw	s0,24(sp)
80002f38:	02010113          	addi	sp,sp,32
80002f3c:	00008067          	ret

80002f40 <r_mhartid>:
{
80002f40:	fe010113          	addi	sp,sp,-32
80002f44:	00812e23          	sw	s0,28(sp)
80002f48:	02010413          	addi	s0,sp,32
	asm volatile("csrr %0, mhartid" : "=r" (x) );
80002f4c:	f14027f3          	csrr	a5,mhartid
80002f50:	fef42623          	sw	a5,-20(s0)
	return x;
80002f54:	fec42783          	lw	a5,-20(s0)
}
80002f58:	00078513          	mv	a0,a5
80002f5c:	01c12403          	lw	s0,28(sp)
80002f60:	02010113          	addi	sp,sp,32
80002f64:	00008067          	ret

80002f68 <r_mstatus>:
{
80002f68:	fe010113          	addi	sp,sp,-32
80002f6c:	00812e23          	sw	s0,28(sp)
80002f70:	02010413          	addi	s0,sp,32
	asm volatile("csrr %0, mstatus" : "=r" (x) );
80002f74:	300027f3          	csrr	a5,mstatus
80002f78:	fef42623          	sw	a5,-20(s0)
	return x;
80002f7c:	fec42783          	lw	a5,-20(s0)
}
80002f80:	00078513          	mv	a0,a5
80002f84:	01c12403          	lw	s0,28(sp)
80002f88:	02010113          	addi	sp,sp,32
80002f8c:	00008067          	ret

80002f90 <w_mstatus>:
{
80002f90:	fe010113          	addi	sp,sp,-32
80002f94:	00812e23          	sw	s0,28(sp)
80002f98:	02010413          	addi	s0,sp,32
80002f9c:	fea42623          	sw	a0,-20(s0)
	asm volatile("csrw mstatus, %0" : : "r" (x));
80002fa0:	fec42783          	lw	a5,-20(s0)
80002fa4:	30079073          	csrw	mstatus,a5
}
80002fa8:	00000013          	nop
80002fac:	01c12403          	lw	s0,28(sp)
80002fb0:	02010113          	addi	sp,sp,32
80002fb4:	00008067          	ret

80002fb8 <w_mtvec>:
{
80002fb8:	fe010113          	addi	sp,sp,-32
80002fbc:	00812e23          	sw	s0,28(sp)
80002fc0:	02010413          	addi	s0,sp,32
80002fc4:	fea42623          	sw	a0,-20(s0)
	asm volatile("csrw mtvec, %0" : : "r" (x));
80002fc8:	fec42783          	lw	a5,-20(s0)
80002fcc:	30579073          	csrw	mtvec,a5
}
80002fd0:	00000013          	nop
80002fd4:	01c12403          	lw	s0,28(sp)
80002fd8:	02010113          	addi	sp,sp,32
80002fdc:	00008067          	ret

80002fe0 <trap_init>:
extern void timer_handler(void);
extern void schedule(void);
extern void handle_syscall(reg_t epc, reg_t cause);

void trap_init()
{
80002fe0:	ff010113          	addi	sp,sp,-16
80002fe4:	00112623          	sw	ra,12(sp)
80002fe8:	00812423          	sw	s0,8(sp)
80002fec:	01010413          	addi	s0,sp,16
	/*
	 * set the trap-vector base-address for machine-mode
	 */
	w_mtvec((reg_t)trap_vector);
80002ff0:	800027b7          	lui	a5,0x80002
80002ff4:	06878793          	addi	a5,a5,104 # 80002068 <_memory_end+0xf8002068>
80002ff8:	00078513          	mv	a0,a5
80002ffc:	fbdff0ef          	jal	ra,80002fb8 <w_mtvec>
}
80003000:	00000013          	nop
80003004:	00c12083          	lw	ra,12(sp)
80003008:	00812403          	lw	s0,8(sp)
8000300c:	01010113          	addi	sp,sp,16
80003010:	00008067          	ret

80003014 <external_interrupt_handler>:

void external_interrupt_handler()
{
80003014:	fe010113          	addi	sp,sp,-32
80003018:	00112e23          	sw	ra,28(sp)
8000301c:	00812c23          	sw	s0,24(sp)
80003020:	02010413          	addi	s0,sp,32
	int irq = plic_claim();
80003024:	2c8010ef          	jal	ra,800042ec <plic_claim>
80003028:	fea42623          	sw	a0,-20(s0)

	if (irq == UART0_IRQ)
8000302c:	fec42703          	lw	a4,-20(s0)
80003030:	00a00793          	li	a5,10
80003034:	00f71663          	bne	a4,a5,80003040 <external_interrupt_handler+0x2c>
	{
		uart_isr();
80003038:	0ec010ef          	jal	ra,80004124 <uart_isr>
8000303c:	01c0006f          	j	80003058 <external_interrupt_handler+0x44>
	}
	else if (irq)
80003040:	fec42783          	lw	a5,-20(s0)
80003044:	00078a63          	beqz	a5,80003058 <external_interrupt_handler+0x44>
	{
		printf("unexpected interrupt irq = %d\n", irq);
80003048:	fec42583          	lw	a1,-20(s0)
8000304c:	800057b7          	lui	a5,0x80005
80003050:	7b078513          	addi	a0,a5,1968 # 800057b0 <_memory_end+0xf80057b0>
80003054:	5b5010ef          	jal	ra,80004e08 <printf>
	}

	if (irq)
80003058:	fec42783          	lw	a5,-20(s0)
8000305c:	00078663          	beqz	a5,80003068 <external_interrupt_handler+0x54>
	{
		plic_complete(irq);
80003060:	fec42503          	lw	a0,-20(s0)
80003064:	2d8010ef          	jal	ra,8000433c <plic_complete>
	}
}
80003068:	00000013          	nop
8000306c:	01c12083          	lw	ra,28(sp)
80003070:	01812403          	lw	s0,24(sp)
80003074:	02010113          	addi	sp,sp,32
80003078:	00008067          	ret

8000307c <trap_handler>:

reg_t trap_handler(reg_t epc, reg_t cause)
{
8000307c:	fc010113          	addi	sp,sp,-64
80003080:	02112e23          	sw	ra,60(sp)
80003084:	02812c23          	sw	s0,56(sp)
80003088:	04010413          	addi	s0,sp,64
8000308c:	fca42623          	sw	a0,-52(s0)
80003090:	fcb42423          	sw	a1,-56(s0)
	// printf("异常发生！epc = %x, cause = %x\n", epc, cause);
	reg_t return_pc = epc;
80003094:	fcc42783          	lw	a5,-52(s0)
80003098:	fef42623          	sw	a5,-20(s0)
	reg_t cause_code = cause & 0xfff;
8000309c:	fc842703          	lw	a4,-56(s0)
800030a0:	000017b7          	lui	a5,0x1
800030a4:	fff78793          	addi	a5,a5,-1 # fff <STACK_SIZE+0xbff>
800030a8:	00f777b3          	and	a5,a4,a5
800030ac:	fef42423          	sw	a5,-24(s0)

	if (cause & 0x80000000)
800030b0:	fc842783          	lw	a5,-56(s0)
800030b4:	0807d063          	bgez	a5,80003134 <trap_handler+0xb8>
	{
		/* 异步陷阱 - 中断 */
		switch (cause_code)
800030b8:	fe842703          	lw	a4,-24(s0)
800030bc:	00b00793          	li	a5,11
800030c0:	04f70e63          	beq	a4,a5,8000311c <trap_handler+0xa0>
800030c4:	fe842703          	lw	a4,-24(s0)
800030c8:	00b00793          	li	a5,11
800030cc:	04e7ec63          	bltu	a5,a4,80003124 <trap_handler+0xa8>
800030d0:	fe842703          	lw	a4,-24(s0)
800030d4:	00300793          	li	a5,3
800030d8:	00f70a63          	beq	a4,a5,800030ec <trap_handler+0x70>
800030dc:	fe842703          	lw	a4,-24(s0)
800030e0:	00700793          	li	a5,7
800030e4:	02f70863          	beq	a4,a5,80003114 <trap_handler+0x98>
800030e8:	03c0006f          	j	80003124 <trap_handler+0xa8>
			// uart_puts("软件中断！\n");
			/*
			 * 清除软件中断
			 */
			{
				int id = r_mhartid();
800030ec:	e55ff0ef          	jal	ra,80002f40 <r_mhartid>
800030f0:	00050793          	mv	a5,a0
800030f4:	fcf42e23          	sw	a5,-36(s0)
				*(uint32_t *)CLINT_MSIP(id) = 0;
800030f8:	fdc42703          	lw	a4,-36(s0)
800030fc:	008007b7          	lui	a5,0x800
80003100:	00f707b3          	add	a5,a4,a5
80003104:	00279793          	slli	a5,a5,0x2
80003108:	0007a023          	sw	zero,0(a5) # 800000 <STACK_SIZE+0x7ffc00>

				// 切换到内核调度任务
				schedule();
8000310c:	b08ff0ef          	jal	ra,80002414 <schedule>
				break;
80003110:	1040006f          	j	80003214 <trap_handler+0x198>
			}
		case 7:
			// uart_puts("定时器中断！\n");
			timer_handler();
80003114:	5f0010ef          	jal	ra,80004704 <timer_handler>
			break;
80003118:	0fc0006f          	j	80003214 <trap_handler+0x198>
		case 11:
			// uart_puts("外部中断！\n");
			external_interrupt_handler();
8000311c:	ef9ff0ef          	jal	ra,80003014 <external_interrupt_handler>
			break;
80003120:	0f40006f          	j	80003214 <trap_handler+0x198>
		default:
			uart_puts("未知的异步异常！\n");
80003124:	800057b7          	lui	a5,0x80005
80003128:	7d078513          	addi	a0,a5,2000 # 800057d0 <_memory_end+0xf80057d0>
8000312c:	75d000ef          	jal	ra,80004088 <uart_puts>
			break;
80003130:	0e40006f          	j	80003214 <trap_handler+0x198>
		}
	}
	else
	{
		/* 同步陷阱 - 异常 */
		switch (cause_code)
80003134:	fe842703          	lw	a4,-24(s0)
80003138:	00800793          	li	a5,8
8000313c:	00f70863          	beq	a4,a5,8000314c <trap_handler+0xd0>
80003140:	fe842703          	lw	a4,-24(s0)
80003144:	00b00793          	li	a5,11
80003148:	08f71c63          	bne	a4,a5,800031e0 <trap_handler+0x164>
		{
		case 8:	 // 环境调用（来自用户模式）
		case 11: // 环境调用（来自机器模式）
			// 系统调用处理
			return_pc += 4;				// 跳过 ecall 指令
8000314c:	fec42783          	lw	a5,-20(s0)
80003150:	00478793          	addi	a5,a5,4
80003154:	fef42623          	sw	a5,-20(s0)
			handle_syscall(epc, cause); // 只传递epc和cause
80003158:	fc842583          	lw	a1,-56(s0)
8000315c:	fcc42503          	lw	a0,-52(s0)
80003160:	3d9000ef          	jal	ra,80003d38 <handle_syscall>

			// 确保正确设置返回的特权级别
			if (cause_code == 8)
80003164:	fe842703          	lw	a4,-24(s0)
80003168:	00800793          	li	a5,8
8000316c:	02f71663          	bne	a4,a5,80003198 <trap_handler+0x11c>
			{
				// 用户模式调用，确保返回用户模式
				reg_t mstatus = r_mstatus();
80003170:	df9ff0ef          	jal	ra,80002f68 <r_mstatus>
80003174:	fea42023          	sw	a0,-32(s0)
				mstatus &= ~MSTATUS_MPP; // 清除MPP位(设为用户模式)
80003178:	fe042703          	lw	a4,-32(s0)
8000317c:	ffffe7b7          	lui	a5,0xffffe
80003180:	7ff78793          	addi	a5,a5,2047 # ffffe7ff <_memory_end+0x77ffe7ff>
80003184:	00f777b3          	and	a5,a4,a5
80003188:	fef42023          	sw	a5,-32(s0)
				w_mstatus(mstatus);
8000318c:	fe042503          	lw	a0,-32(s0)
80003190:	e01ff0ef          	jal	ra,80002f90 <w_mstatus>
				reg_t mstatus = r_mstatus();
				mstatus &= ~MSTATUS_MPP;
				mstatus |= 3 << 11; // 设置MPP为机器模式(3)
				w_mstatus(mstatus);
			}
			break;
80003194:	07c0006f          	j	80003210 <trap_handler+0x194>
			else if (cause_code == 11)
80003198:	fe842703          	lw	a4,-24(s0)
8000319c:	00b00793          	li	a5,11
800031a0:	06f71863          	bne	a4,a5,80003210 <trap_handler+0x194>
				reg_t mstatus = r_mstatus();
800031a4:	dc5ff0ef          	jal	ra,80002f68 <r_mstatus>
800031a8:	fea42223          	sw	a0,-28(s0)
				mstatus &= ~MSTATUS_MPP;
800031ac:	fe442703          	lw	a4,-28(s0)
800031b0:	ffffe7b7          	lui	a5,0xffffe
800031b4:	7ff78793          	addi	a5,a5,2047 # ffffe7ff <_memory_end+0x77ffe7ff>
800031b8:	00f777b3          	and	a5,a4,a5
800031bc:	fef42223          	sw	a5,-28(s0)
				mstatus |= 3 << 11; // 设置MPP为机器模式(3)
800031c0:	fe442703          	lw	a4,-28(s0)
800031c4:	000027b7          	lui	a5,0x2
800031c8:	80078793          	addi	a5,a5,-2048 # 1800 <STACK_SIZE+0x1400>
800031cc:	00f767b3          	or	a5,a4,a5
800031d0:	fef42223          	sw	a5,-28(s0)
				w_mstatus(mstatus);
800031d4:	fe442503          	lw	a0,-28(s0)
800031d8:	db9ff0ef          	jal	ra,80002f90 <w_mstatus>
			break;
800031dc:	0340006f          	j	80003210 <trap_handler+0x194>
		default:
			printf("同步异常!, code = %d, epc = %x\n", cause_code, epc);
800031e0:	fcc42603          	lw	a2,-52(s0)
800031e4:	fe842583          	lw	a1,-24(s0)
800031e8:	800057b7          	lui	a5,0x80005
800031ec:	7ec78513          	addi	a0,a5,2028 # 800057ec <_memory_end+0xf80057ec>
800031f0:	419010ef          	jal	ra,80004e08 <printf>
			panic("OOPS! 无法处理的异常！");
800031f4:	800067b7          	lui	a5,0x80006
800031f8:	81078513          	addi	a0,a5,-2032 # 80005810 <_memory_end+0xf8005810>
800031fc:	481010ef          	jal	ra,80004e7c <panic>
			return_pc += 4;
80003200:	fec42783          	lw	a5,-20(s0)
80003204:	00478793          	addi	a5,a5,4
80003208:	fef42623          	sw	a5,-20(s0)
			break;
8000320c:	0080006f          	j	80003214 <trap_handler+0x198>
			break;
80003210:	00000013          	nop
		}
	}

	return return_pc;
80003214:	fec42783          	lw	a5,-20(s0)
}
80003218:	00078513          	mv	a0,a5
8000321c:	03c12083          	lw	ra,60(sp)
80003220:	03812403          	lw	s0,56(sp)
80003224:	04010113          	addi	sp,sp,64
80003228:	00008067          	ret

8000322c <r_mstatus>:
{
8000322c:	fe010113          	addi	sp,sp,-32
80003230:	00812e23          	sw	s0,28(sp)
80003234:	02010413          	addi	s0,sp,32
	asm volatile("csrr %0, mstatus" : "=r" (x) );
80003238:	300027f3          	csrr	a5,mstatus
8000323c:	fef42623          	sw	a5,-20(s0)
	return x;
80003240:	fec42783          	lw	a5,-20(s0)
}
80003244:	00078513          	mv	a0,a5
80003248:	01c12403          	lw	s0,28(sp)
8000324c:	02010113          	addi	sp,sp,32
80003250:	00008067          	ret

80003254 <w_mstatus>:
{
80003254:	fe010113          	addi	sp,sp,-32
80003258:	00812e23          	sw	s0,28(sp)
8000325c:	02010413          	addi	s0,sp,32
80003260:	fea42623          	sw	a0,-20(s0)
	asm volatile("csrw mstatus, %0" : : "r" (x));
80003264:	fec42783          	lw	a5,-20(s0)
80003268:	30079073          	csrw	mstatus,a5
}
8000326c:	00000013          	nop
80003270:	01c12403          	lw	s0,28(sp)
80003274:	02010113          	addi	sp,sp,32
80003278:	00008067          	ret

8000327c <spin_lock>:
#include "os.h"

int spin_lock()
{
8000327c:	ff010113          	addi	sp,sp,-16
80003280:	00112623          	sw	ra,12(sp)
80003284:	00812423          	sw	s0,8(sp)
80003288:	01010413          	addi	s0,sp,16
	w_mstatus(r_mstatus() & ~MSTATUS_MIE);
8000328c:	fa1ff0ef          	jal	ra,8000322c <r_mstatus>
80003290:	00050793          	mv	a5,a0
80003294:	ff77f793          	andi	a5,a5,-9
80003298:	00078513          	mv	a0,a5
8000329c:	fb9ff0ef          	jal	ra,80003254 <w_mstatus>
	return 0;
800032a0:	00000793          	li	a5,0
}
800032a4:	00078513          	mv	a0,a5
800032a8:	00c12083          	lw	ra,12(sp)
800032ac:	00812403          	lw	s0,8(sp)
800032b0:	01010113          	addi	sp,sp,16
800032b4:	00008067          	ret

800032b8 <spin_unlock>:

int spin_unlock()
{
800032b8:	ff010113          	addi	sp,sp,-16
800032bc:	00112623          	sw	ra,12(sp)
800032c0:	00812423          	sw	s0,8(sp)
800032c4:	01010413          	addi	s0,sp,16
	w_mstatus(r_mstatus() | MSTATUS_MIE);
800032c8:	f65ff0ef          	jal	ra,8000322c <r_mstatus>
800032cc:	00050793          	mv	a5,a0
800032d0:	0087e793          	ori	a5,a5,8
800032d4:	00078513          	mv	a0,a5
800032d8:	f7dff0ef          	jal	ra,80003254 <w_mstatus>
	return 0;
800032dc:	00000793          	li	a5,0
}
800032e0:	00078513          	mv	a0,a5
800032e4:	00c12083          	lw	ra,12(sp)
800032e8:	00812403          	lw	s0,8(sp)
800032ec:	01010113          	addi	sp,sp,16
800032f0:	00008067          	ret

800032f4 <_clear>:
struct Page {
	uint8_t flags;
};

static inline void _clear(struct Page *page)
{
800032f4:	fe010113          	addi	sp,sp,-32
800032f8:	00812e23          	sw	s0,28(sp)
800032fc:	02010413          	addi	s0,sp,32
80003300:	fea42623          	sw	a0,-20(s0)
	page->flags = 0;
80003304:	fec42783          	lw	a5,-20(s0)
80003308:	00078023          	sb	zero,0(a5)
}
8000330c:	00000013          	nop
80003310:	01c12403          	lw	s0,28(sp)
80003314:	02010113          	addi	sp,sp,32
80003318:	00008067          	ret

8000331c <_is_free>:

static inline int _is_free(struct Page *page)
{
8000331c:	fe010113          	addi	sp,sp,-32
80003320:	00812e23          	sw	s0,28(sp)
80003324:	02010413          	addi	s0,sp,32
80003328:	fea42623          	sw	a0,-20(s0)
	if (page->flags & PAGE_TAKEN) {
8000332c:	fec42783          	lw	a5,-20(s0)
80003330:	0007c783          	lbu	a5,0(a5)
80003334:	0017f793          	andi	a5,a5,1
80003338:	00078663          	beqz	a5,80003344 <_is_free+0x28>
		return 0;
8000333c:	00000793          	li	a5,0
80003340:	0080006f          	j	80003348 <_is_free+0x2c>
	} else {
		return 1;
80003344:	00100793          	li	a5,1
	}
}
80003348:	00078513          	mv	a0,a5
8000334c:	01c12403          	lw	s0,28(sp)
80003350:	02010113          	addi	sp,sp,32
80003354:	00008067          	ret

80003358 <_set_flag>:

static inline void _set_flag(struct Page *page, uint8_t flags)
{
80003358:	fe010113          	addi	sp,sp,-32
8000335c:	00812e23          	sw	s0,28(sp)
80003360:	02010413          	addi	s0,sp,32
80003364:	fea42623          	sw	a0,-20(s0)
80003368:	00058793          	mv	a5,a1
8000336c:	fef405a3          	sb	a5,-21(s0)
	page->flags |= flags;
80003370:	fec42783          	lw	a5,-20(s0)
80003374:	0007c703          	lbu	a4,0(a5)
80003378:	feb44783          	lbu	a5,-21(s0)
8000337c:	00f767b3          	or	a5,a4,a5
80003380:	0ff7f713          	andi	a4,a5,255
80003384:	fec42783          	lw	a5,-20(s0)
80003388:	00e78023          	sb	a4,0(a5)
}
8000338c:	00000013          	nop
80003390:	01c12403          	lw	s0,28(sp)
80003394:	02010113          	addi	sp,sp,32
80003398:	00008067          	ret

8000339c <_is_last>:

static inline int _is_last(struct Page *page)
{
8000339c:	fe010113          	addi	sp,sp,-32
800033a0:	00812e23          	sw	s0,28(sp)
800033a4:	02010413          	addi	s0,sp,32
800033a8:	fea42623          	sw	a0,-20(s0)
	if (page->flags & PAGE_LAST) {
800033ac:	fec42783          	lw	a5,-20(s0)
800033b0:	0007c783          	lbu	a5,0(a5)
800033b4:	0027f793          	andi	a5,a5,2
800033b8:	00078663          	beqz	a5,800033c4 <_is_last+0x28>
		return 1;
800033bc:	00100793          	li	a5,1
800033c0:	0080006f          	j	800033c8 <_is_last+0x2c>
	} else {
		return 0;
800033c4:	00000793          	li	a5,0
	}
}
800033c8:	00078513          	mv	a0,a5
800033cc:	01c12403          	lw	s0,28(sp)
800033d0:	02010113          	addi	sp,sp,32
800033d4:	00008067          	ret

800033d8 <_align_page>:

/*
 * align the address to the border of page(4K)
 */
static inline uint32_t _align_page(uint32_t address)
{
800033d8:	fd010113          	addi	sp,sp,-48
800033dc:	02812623          	sw	s0,44(sp)
800033e0:	03010413          	addi	s0,sp,48
800033e4:	fca42e23          	sw	a0,-36(s0)
	uint32_t order = (1 << PAGE_ORDER) - 1;
800033e8:	000017b7          	lui	a5,0x1
800033ec:	fff78793          	addi	a5,a5,-1 # fff <STACK_SIZE+0xbff>
800033f0:	fef42623          	sw	a5,-20(s0)
	return (address + order) & (~order);
800033f4:	fdc42703          	lw	a4,-36(s0)
800033f8:	fec42783          	lw	a5,-20(s0)
800033fc:	00f70733          	add	a4,a4,a5
80003400:	fec42783          	lw	a5,-20(s0)
80003404:	fff7c793          	not	a5,a5
80003408:	00f777b3          	and	a5,a4,a5
}
8000340c:	00078513          	mv	a0,a5
80003410:	02c12403          	lw	s0,44(sp)
80003414:	03010113          	addi	sp,sp,48
80003418:	00008067          	ret

8000341c <page_init>:

void page_init()
{
8000341c:	fe010113          	addi	sp,sp,-32
80003420:	00112e23          	sw	ra,28(sp)
80003424:	00812c23          	sw	s0,24(sp)
80003428:	02010413          	addi	s0,sp,32
	/* 
	 * We reserved 8 Page (8 x 4096) to hold the Page structures.
	 * It should be enough to manage at most 128 MB (8 x 4096 x 4096) 
	 */
	_num_pages = (HEAP_SIZE / PAGE_SIZE) - 8;
8000342c:	800057b7          	lui	a5,0x80005
80003430:	5d87a783          	lw	a5,1496(a5) # 800055d8 <_memory_end+0xf80055d8>
80003434:	00c7d793          	srli	a5,a5,0xc
80003438:	ff878713          	addi	a4,a5,-8
8000343c:	80b067b7          	lui	a5,0x80b06
80003440:	70e7ac23          	sw	a4,1816(a5) # 80b06718 <_memory_end+0xf8b06718>
	printf("HEAP_START = %x, HEAP_SIZE = %x, num of pages = %d\n", HEAP_START, HEAP_SIZE, _num_pages);
80003444:	800057b7          	lui	a5,0x80005
80003448:	5d47a703          	lw	a4,1492(a5) # 800055d4 <_memory_end+0xf80055d4>
8000344c:	800057b7          	lui	a5,0x80005
80003450:	5d87a603          	lw	a2,1496(a5) # 800055d8 <_memory_end+0xf80055d8>
80003454:	80b067b7          	lui	a5,0x80b06
80003458:	7187a783          	lw	a5,1816(a5) # 80b06718 <_memory_end+0xf8b06718>
8000345c:	00078693          	mv	a3,a5
80003460:	00070593          	mv	a1,a4
80003464:	800067b7          	lui	a5,0x80006
80003468:	83078513          	addi	a0,a5,-2000 # 80005830 <_memory_end+0xf8005830>
8000346c:	19d010ef          	jal	ra,80004e08 <printf>
	
	struct Page *page = (struct Page *)HEAP_START;
80003470:	800057b7          	lui	a5,0x80005
80003474:	5d47a783          	lw	a5,1492(a5) # 800055d4 <_memory_end+0xf80055d4>
80003478:	fef42623          	sw	a5,-20(s0)
	for (int i = 0; i < _num_pages; i++) {
8000347c:	fe042423          	sw	zero,-24(s0)
80003480:	0240006f          	j	800034a4 <page_init+0x88>
		_clear(page);
80003484:	fec42503          	lw	a0,-20(s0)
80003488:	e6dff0ef          	jal	ra,800032f4 <_clear>
		page++;	
8000348c:	fec42783          	lw	a5,-20(s0)
80003490:	00178793          	addi	a5,a5,1
80003494:	fef42623          	sw	a5,-20(s0)
	for (int i = 0; i < _num_pages; i++) {
80003498:	fe842783          	lw	a5,-24(s0)
8000349c:	00178793          	addi	a5,a5,1
800034a0:	fef42423          	sw	a5,-24(s0)
800034a4:	fe842703          	lw	a4,-24(s0)
800034a8:	80b067b7          	lui	a5,0x80b06
800034ac:	7187a783          	lw	a5,1816(a5) # 80b06718 <_memory_end+0xf8b06718>
800034b0:	fcf76ae3          	bltu	a4,a5,80003484 <page_init+0x68>
	}

	_alloc_start = _align_page(HEAP_START + 8 * PAGE_SIZE);
800034b4:	800057b7          	lui	a5,0x80005
800034b8:	5d47a703          	lw	a4,1492(a5) # 800055d4 <_memory_end+0xf80055d4>
800034bc:	000087b7          	lui	a5,0x8
800034c0:	00f707b3          	add	a5,a4,a5
800034c4:	00078513          	mv	a0,a5
800034c8:	f11ff0ef          	jal	ra,800033d8 <_align_page>
800034cc:	00050713          	mv	a4,a0
800034d0:	80b067b7          	lui	a5,0x80b06
800034d4:	70e7a823          	sw	a4,1808(a5) # 80b06710 <_memory_end+0xf8b06710>
	_alloc_end = _alloc_start + (PAGE_SIZE * _num_pages);
800034d8:	80b067b7          	lui	a5,0x80b06
800034dc:	7187a783          	lw	a5,1816(a5) # 80b06718 <_memory_end+0xf8b06718>
800034e0:	00c79713          	slli	a4,a5,0xc
800034e4:	80b067b7          	lui	a5,0x80b06
800034e8:	7107a783          	lw	a5,1808(a5) # 80b06710 <_memory_end+0xf8b06710>
800034ec:	00f70733          	add	a4,a4,a5
800034f0:	80b067b7          	lui	a5,0x80b06
800034f4:	70e7aa23          	sw	a4,1812(a5) # 80b06714 <_memory_end+0xf8b06714>

	printf("TEXT:   0x%x -> 0x%x\n", TEXT_START, TEXT_END);
800034f8:	800057b7          	lui	a5,0x80005
800034fc:	5dc7a703          	lw	a4,1500(a5) # 800055dc <_memory_end+0xf80055dc>
80003500:	800057b7          	lui	a5,0x80005
80003504:	5e07a783          	lw	a5,1504(a5) # 800055e0 <_memory_end+0xf80055e0>
80003508:	00078613          	mv	a2,a5
8000350c:	00070593          	mv	a1,a4
80003510:	800067b7          	lui	a5,0x80006
80003514:	86478513          	addi	a0,a5,-1948 # 80005864 <_memory_end+0xf8005864>
80003518:	0f1010ef          	jal	ra,80004e08 <printf>
	printf("RODATA: 0x%x -> 0x%x\n", RODATA_START, RODATA_END);
8000351c:	800057b7          	lui	a5,0x80005
80003520:	5ec7a703          	lw	a4,1516(a5) # 800055ec <_memory_end+0xf80055ec>
80003524:	800057b7          	lui	a5,0x80005
80003528:	5f07a783          	lw	a5,1520(a5) # 800055f0 <_memory_end+0xf80055f0>
8000352c:	00078613          	mv	a2,a5
80003530:	00070593          	mv	a1,a4
80003534:	800067b7          	lui	a5,0x80006
80003538:	87c78513          	addi	a0,a5,-1924 # 8000587c <_memory_end+0xf800587c>
8000353c:	0cd010ef          	jal	ra,80004e08 <printf>
	printf("DATA:   0x%x -> 0x%x\n", DATA_START, DATA_END);
80003540:	800057b7          	lui	a5,0x80005
80003544:	5e47a703          	lw	a4,1508(a5) # 800055e4 <_memory_end+0xf80055e4>
80003548:	800057b7          	lui	a5,0x80005
8000354c:	5e87a783          	lw	a5,1512(a5) # 800055e8 <_memory_end+0xf80055e8>
80003550:	00078613          	mv	a2,a5
80003554:	00070593          	mv	a1,a4
80003558:	800067b7          	lui	a5,0x80006
8000355c:	89478513          	addi	a0,a5,-1900 # 80005894 <_memory_end+0xf8005894>
80003560:	0a9010ef          	jal	ra,80004e08 <printf>
	printf("BSS:    0x%x -> 0x%x\n", BSS_START, BSS_END);
80003564:	800057b7          	lui	a5,0x80005
80003568:	5f47a703          	lw	a4,1524(a5) # 800055f4 <_memory_end+0xf80055f4>
8000356c:	800057b7          	lui	a5,0x80005
80003570:	5f87a783          	lw	a5,1528(a5) # 800055f8 <_memory_end+0xf80055f8>
80003574:	00078613          	mv	a2,a5
80003578:	00070593          	mv	a1,a4
8000357c:	800067b7          	lui	a5,0x80006
80003580:	8ac78513          	addi	a0,a5,-1876 # 800058ac <_memory_end+0xf80058ac>
80003584:	085010ef          	jal	ra,80004e08 <printf>
	printf("HEAP:   0x%x -> 0x%x\n", _alloc_start, _alloc_end);
80003588:	80b067b7          	lui	a5,0x80b06
8000358c:	7107a703          	lw	a4,1808(a5) # 80b06710 <_memory_end+0xf8b06710>
80003590:	80b067b7          	lui	a5,0x80b06
80003594:	7147a783          	lw	a5,1812(a5) # 80b06714 <_memory_end+0xf8b06714>
80003598:	00078613          	mv	a2,a5
8000359c:	00070593          	mv	a1,a4
800035a0:	800067b7          	lui	a5,0x80006
800035a4:	8c478513          	addi	a0,a5,-1852 # 800058c4 <_memory_end+0xf80058c4>
800035a8:	061010ef          	jal	ra,80004e08 <printf>
}
800035ac:	00000013          	nop
800035b0:	01c12083          	lw	ra,28(sp)
800035b4:	01812403          	lw	s0,24(sp)
800035b8:	02010113          	addi	sp,sp,32
800035bc:	00008067          	ret

800035c0 <page_alloc>:
/*
 * Allocate a memory block which is composed of contiguous physical pages
 * - npages: the number of PAGE_SIZE pages to allocate
 */
void *page_alloc(int npages)
{
800035c0:	fc010113          	addi	sp,sp,-64
800035c4:	02112e23          	sw	ra,60(sp)
800035c8:	02812c23          	sw	s0,56(sp)
800035cc:	04010413          	addi	s0,sp,64
800035d0:	fca42623          	sw	a0,-52(s0)
	/* Note we are searching the page descriptor bitmaps. */
	int found = 0;
800035d4:	fe042623          	sw	zero,-20(s0)
	struct Page *page_i = (struct Page *)HEAP_START;
800035d8:	800057b7          	lui	a5,0x80005
800035dc:	5d47a783          	lw	a5,1492(a5) # 800055d4 <_memory_end+0xf80055d4>
800035e0:	fef42423          	sw	a5,-24(s0)
	for (int i = 0; i <= (_num_pages - npages); i++) {
800035e4:	fe042223          	sw	zero,-28(s0)
800035e8:	11c0006f          	j	80003704 <page_alloc+0x144>
		if (_is_free(page_i)) {
800035ec:	fe842503          	lw	a0,-24(s0)
800035f0:	d2dff0ef          	jal	ra,8000331c <_is_free>
800035f4:	00050793          	mv	a5,a0
800035f8:	0e078a63          	beqz	a5,800036ec <page_alloc+0x12c>
			found = 1;
800035fc:	00100793          	li	a5,1
80003600:	fef42623          	sw	a5,-20(s0)
			/* 
			 * meet a free page, continue to check if following
			 * (npages - 1) pages are also unallocated.
			 */
			struct Page *page_j = page_i + 1;
80003604:	fe842783          	lw	a5,-24(s0)
80003608:	00178793          	addi	a5,a5,1
8000360c:	fef42023          	sw	a5,-32(s0)
			for (int j = i + 1; j < (i + npages); j++) {
80003610:	fe442783          	lw	a5,-28(s0)
80003614:	00178793          	addi	a5,a5,1
80003618:	fcf42e23          	sw	a5,-36(s0)
8000361c:	0340006f          	j	80003650 <page_alloc+0x90>
				if (!_is_free(page_j)) {
80003620:	fe042503          	lw	a0,-32(s0)
80003624:	cf9ff0ef          	jal	ra,8000331c <_is_free>
80003628:	00050793          	mv	a5,a0
8000362c:	00079663          	bnez	a5,80003638 <page_alloc+0x78>
					found = 0;
80003630:	fe042623          	sw	zero,-20(s0)
					break;
80003634:	0300006f          	j	80003664 <page_alloc+0xa4>
				}
				page_j++;
80003638:	fe042783          	lw	a5,-32(s0)
8000363c:	00178793          	addi	a5,a5,1
80003640:	fef42023          	sw	a5,-32(s0)
			for (int j = i + 1; j < (i + npages); j++) {
80003644:	fdc42783          	lw	a5,-36(s0)
80003648:	00178793          	addi	a5,a5,1
8000364c:	fcf42e23          	sw	a5,-36(s0)
80003650:	fe442703          	lw	a4,-28(s0)
80003654:	fcc42783          	lw	a5,-52(s0)
80003658:	00f707b3          	add	a5,a4,a5
8000365c:	fdc42703          	lw	a4,-36(s0)
80003660:	fcf740e3          	blt	a4,a5,80003620 <page_alloc+0x60>
			/*
			 * get a memory block which is good enough for us,
			 * take housekeeping, then return the actual start
			 * address of the first page of this memory block
			 */
			if (found) {
80003664:	fec42783          	lw	a5,-20(s0)
80003668:	08078263          	beqz	a5,800036ec <page_alloc+0x12c>
				struct Page *page_k = page_i;
8000366c:	fe842783          	lw	a5,-24(s0)
80003670:	fcf42c23          	sw	a5,-40(s0)
				for (int k = i; k < (i + npages); k++) {
80003674:	fe442783          	lw	a5,-28(s0)
80003678:	fcf42a23          	sw	a5,-44(s0)
8000367c:	0280006f          	j	800036a4 <page_alloc+0xe4>
					_set_flag(page_k, PAGE_TAKEN);
80003680:	00100593          	li	a1,1
80003684:	fd842503          	lw	a0,-40(s0)
80003688:	cd1ff0ef          	jal	ra,80003358 <_set_flag>
					page_k++;
8000368c:	fd842783          	lw	a5,-40(s0)
80003690:	00178793          	addi	a5,a5,1
80003694:	fcf42c23          	sw	a5,-40(s0)
				for (int k = i; k < (i + npages); k++) {
80003698:	fd442783          	lw	a5,-44(s0)
8000369c:	00178793          	addi	a5,a5,1
800036a0:	fcf42a23          	sw	a5,-44(s0)
800036a4:	fe442703          	lw	a4,-28(s0)
800036a8:	fcc42783          	lw	a5,-52(s0)
800036ac:	00f707b3          	add	a5,a4,a5
800036b0:	fd442703          	lw	a4,-44(s0)
800036b4:	fcf746e3          	blt	a4,a5,80003680 <page_alloc+0xc0>
				}
				page_k--;
800036b8:	fd842783          	lw	a5,-40(s0)
800036bc:	fff78793          	addi	a5,a5,-1
800036c0:	fcf42c23          	sw	a5,-40(s0)
				_set_flag(page_k, PAGE_LAST);
800036c4:	00200593          	li	a1,2
800036c8:	fd842503          	lw	a0,-40(s0)
800036cc:	c8dff0ef          	jal	ra,80003358 <_set_flag>
				return (void *)(_alloc_start + i * PAGE_SIZE);
800036d0:	fe442783          	lw	a5,-28(s0)
800036d4:	00c79793          	slli	a5,a5,0xc
800036d8:	00078713          	mv	a4,a5
800036dc:	80b067b7          	lui	a5,0x80b06
800036e0:	7107a783          	lw	a5,1808(a5) # 80b06710 <_memory_end+0xf8b06710>
800036e4:	00f707b3          	add	a5,a4,a5
800036e8:	0380006f          	j	80003720 <page_alloc+0x160>
			}
		}
		page_i++;
800036ec:	fe842783          	lw	a5,-24(s0)
800036f0:	00178793          	addi	a5,a5,1
800036f4:	fef42423          	sw	a5,-24(s0)
	for (int i = 0; i <= (_num_pages - npages); i++) {
800036f8:	fe442783          	lw	a5,-28(s0)
800036fc:	00178793          	addi	a5,a5,1
80003700:	fef42223          	sw	a5,-28(s0)
80003704:	80b067b7          	lui	a5,0x80b06
80003708:	7187a703          	lw	a4,1816(a5) # 80b06718 <_memory_end+0xf8b06718>
8000370c:	fcc42783          	lw	a5,-52(s0)
80003710:	40f70733          	sub	a4,a4,a5
80003714:	fe442783          	lw	a5,-28(s0)
80003718:	ecf77ae3          	bgeu	a4,a5,800035ec <page_alloc+0x2c>
	}
	return NULL;
8000371c:	00000793          	li	a5,0
}
80003720:	00078513          	mv	a0,a5
80003724:	03c12083          	lw	ra,60(sp)
80003728:	03812403          	lw	s0,56(sp)
8000372c:	04010113          	addi	sp,sp,64
80003730:	00008067          	ret

80003734 <page_free>:
/*
 * Free the memory block
 * - p: start address of the memory block
 */
void page_free(void *p)
{
80003734:	fd010113          	addi	sp,sp,-48
80003738:	02112623          	sw	ra,44(sp)
8000373c:	02812423          	sw	s0,40(sp)
80003740:	03010413          	addi	s0,sp,48
80003744:	fca42e23          	sw	a0,-36(s0)
	/*
	 * Assert (TBD) if p is invalid
	 */
	if (!p || (uint32_t)p >= _alloc_end) {
80003748:	fdc42783          	lw	a5,-36(s0)
8000374c:	08078463          	beqz	a5,800037d4 <page_free+0xa0>
80003750:	fdc42703          	lw	a4,-36(s0)
80003754:	80b067b7          	lui	a5,0x80b06
80003758:	7147a783          	lw	a5,1812(a5) # 80b06714 <_memory_end+0xf8b06714>
8000375c:	06f77c63          	bgeu	a4,a5,800037d4 <page_free+0xa0>
		return;
	}
	/* get the first page descriptor of this memory block */
	struct Page *page = (struct Page *)HEAP_START;
80003760:	800057b7          	lui	a5,0x80005
80003764:	5d47a783          	lw	a5,1492(a5) # 800055d4 <_memory_end+0xf80055d4>
80003768:	fef42623          	sw	a5,-20(s0)
	page += ((uint32_t)p - _alloc_start)/ PAGE_SIZE;
8000376c:	fdc42703          	lw	a4,-36(s0)
80003770:	80b067b7          	lui	a5,0x80b06
80003774:	7107a783          	lw	a5,1808(a5) # 80b06710 <_memory_end+0xf8b06710>
80003778:	40f707b3          	sub	a5,a4,a5
8000377c:	00c7d793          	srli	a5,a5,0xc
80003780:	fec42703          	lw	a4,-20(s0)
80003784:	00f707b3          	add	a5,a4,a5
80003788:	fef42623          	sw	a5,-20(s0)
	/* loop and clear all the page descriptors of the memory block */
	while (!_is_free(page)) {
8000378c:	0340006f          	j	800037c0 <page_free+0x8c>
		if (_is_last(page)) {
80003790:	fec42503          	lw	a0,-20(s0)
80003794:	c09ff0ef          	jal	ra,8000339c <_is_last>
80003798:	00050793          	mv	a5,a0
8000379c:	00078863          	beqz	a5,800037ac <page_free+0x78>
			_clear(page);
800037a0:	fec42503          	lw	a0,-20(s0)
800037a4:	b51ff0ef          	jal	ra,800032f4 <_clear>
			break;
800037a8:	0300006f          	j	800037d8 <page_free+0xa4>
		} else {
			_clear(page);
800037ac:	fec42503          	lw	a0,-20(s0)
800037b0:	b45ff0ef          	jal	ra,800032f4 <_clear>
			page++;;
800037b4:	fec42783          	lw	a5,-20(s0)
800037b8:	00178793          	addi	a5,a5,1
800037bc:	fef42623          	sw	a5,-20(s0)
	while (!_is_free(page)) {
800037c0:	fec42503          	lw	a0,-20(s0)
800037c4:	b59ff0ef          	jal	ra,8000331c <_is_free>
800037c8:	00050793          	mv	a5,a0
800037cc:	fc0782e3          	beqz	a5,80003790 <page_free+0x5c>
800037d0:	0080006f          	j	800037d8 <page_free+0xa4>
		return;
800037d4:	00000013          	nop
		}
	}
}
800037d8:	02c12083          	lw	ra,44(sp)
800037dc:	02812403          	lw	s0,40(sp)
800037e0:	03010113          	addi	sp,sp,48
800037e4:	00008067          	ret

800037e8 <page_test>:

void page_test()
{
800037e8:	fe010113          	addi	sp,sp,-32
800037ec:	00112e23          	sw	ra,28(sp)
800037f0:	00812c23          	sw	s0,24(sp)
800037f4:	02010413          	addi	s0,sp,32
	void *p = page_alloc(2);
800037f8:	00200513          	li	a0,2
800037fc:	dc5ff0ef          	jal	ra,800035c0 <page_alloc>
80003800:	fea42623          	sw	a0,-20(s0)
	printf("p = 0x%x\n", p);
80003804:	fec42583          	lw	a1,-20(s0)
80003808:	800067b7          	lui	a5,0x80006
8000380c:	8dc78513          	addi	a0,a5,-1828 # 800058dc <_memory_end+0xf80058dc>
80003810:	5f8010ef          	jal	ra,80004e08 <printf>
	//page_free(p);

	void *p2 = page_alloc(7);
80003814:	00700513          	li	a0,7
80003818:	da9ff0ef          	jal	ra,800035c0 <page_alloc>
8000381c:	fea42423          	sw	a0,-24(s0)
	printf("p2 = 0x%x\n", p2);
80003820:	fe842583          	lw	a1,-24(s0)
80003824:	800067b7          	lui	a5,0x80006
80003828:	8e878513          	addi	a0,a5,-1816 # 800058e8 <_memory_end+0xf80058e8>
8000382c:	5dc010ef          	jal	ra,80004e08 <printf>
	page_free(p2);
80003830:	fe842503          	lw	a0,-24(s0)
80003834:	f01ff0ef          	jal	ra,80003734 <page_free>

	void *p3 = page_alloc(4);
80003838:	00400513          	li	a0,4
8000383c:	d85ff0ef          	jal	ra,800035c0 <page_alloc>
80003840:	fea42223          	sw	a0,-28(s0)
	printf("p3 = 0x%x\n", p3);
80003844:	fe442583          	lw	a1,-28(s0)
80003848:	800067b7          	lui	a5,0x80006
8000384c:	8f478513          	addi	a0,a5,-1804 # 800058f4 <_memory_end+0xf80058f4>
80003850:	5b8010ef          	jal	ra,80004e08 <printf>
}
80003854:	00000013          	nop
80003858:	01c12083          	lw	ra,28(sp)
8000385c:	01812403          	lw	s0,24(sp)
80003860:	02010113          	addi	sp,sp,32
80003864:	00008067          	ret

80003868 <memset>:

static char memory_pool[MEMORY_POOL_SIZE];
static mem_block *free_list = (void *)memory_pool;

void *memset(void *ptr, int value, size_t num)
{
80003868:	fd010113          	addi	sp,sp,-48
8000386c:	02812623          	sw	s0,44(sp)
80003870:	03010413          	addi	s0,sp,48
80003874:	fca42e23          	sw	a0,-36(s0)
80003878:	fcb42c23          	sw	a1,-40(s0)
8000387c:	fcc42a23          	sw	a2,-44(s0)
    unsigned char *p = ptr;
80003880:	fdc42783          	lw	a5,-36(s0)
80003884:	fef42623          	sw	a5,-20(s0)
    while (num--)
80003888:	01c0006f          	j	800038a4 <memset+0x3c>
    {
        *p++ = (unsigned char)value;
8000388c:	fec42783          	lw	a5,-20(s0)
80003890:	00178713          	addi	a4,a5,1
80003894:	fee42623          	sw	a4,-20(s0)
80003898:	fd842703          	lw	a4,-40(s0)
8000389c:	0ff77713          	andi	a4,a4,255
800038a0:	00e78023          	sb	a4,0(a5)
    while (num--)
800038a4:	fd442783          	lw	a5,-44(s0)
800038a8:	fff78713          	addi	a4,a5,-1
800038ac:	fce42a23          	sw	a4,-44(s0)
800038b0:	fc079ee3          	bnez	a5,8000388c <memset+0x24>
    }
    return ptr;
800038b4:	fdc42783          	lw	a5,-36(s0)
}
800038b8:	00078513          	mv	a0,a5
800038bc:	02c12403          	lw	s0,44(sp)
800038c0:	03010113          	addi	sp,sp,48
800038c4:	00008067          	ret

800038c8 <memory_init>:

void memory_init(void)
{
800038c8:	ff010113          	addi	sp,sp,-16
800038cc:	00812623          	sw	s0,12(sp)
800038d0:	01010413          	addi	s0,sp,16
    free_list->size = MEMORY_POOL_SIZE - sizeof(mem_block);
800038d4:	800067b7          	lui	a5,0x80006
800038d8:	0047a783          	lw	a5,4(a5) # 80006004 <_memory_end+0xf8006004>
800038dc:	00100737          	lui	a4,0x100
800038e0:	ff470713          	addi	a4,a4,-12 # ffff4 <STACK_SIZE+0xffbf4>
800038e4:	00e7a023          	sw	a4,0(a5)
    free_list->next = NULL;
800038e8:	800067b7          	lui	a5,0x80006
800038ec:	0047a783          	lw	a5,4(a5) # 80006004 <_memory_end+0xf8006004>
800038f0:	0007a223          	sw	zero,4(a5)
    free_list->free = 1;
800038f4:	800067b7          	lui	a5,0x80006
800038f8:	0047a783          	lw	a5,4(a5) # 80006004 <_memory_end+0xf8006004>
800038fc:	00100713          	li	a4,1
80003900:	00e7a423          	sw	a4,8(a5)
}
80003904:	00000013          	nop
80003908:	00c12403          	lw	s0,12(sp)
8000390c:	01010113          	addi	sp,sp,16
80003910:	00008067          	ret

80003914 <malloc>:

void *malloc(size_t size)
{
80003914:	fc010113          	addi	sp,sp,-64
80003918:	02112e23          	sw	ra,60(sp)
8000391c:	02812c23          	sw	s0,56(sp)
80003920:	04010413          	addi	s0,sp,64
80003924:	fca42623          	sw	a0,-52(s0)
    size_t best_fit_size = MEMORY_POOL_SIZE;
80003928:	001007b7          	lui	a5,0x100
8000392c:	fef42623          	sw	a5,-20(s0)
    mem_block *best_fit_block = NULL;
80003930:	fe042423          	sw	zero,-24(s0)
    mem_block *current = free_list;
80003934:	800067b7          	lui	a5,0x80006
80003938:	0047a783          	lw	a5,4(a5) # 80006004 <_memory_end+0xf8006004>
8000393c:	fef42223          	sw	a5,-28(s0)

    size = ALIGN(size + sizeof(mem_block)); // 包括管理结构的大小
80003940:	fcc42783          	lw	a5,-52(s0)
80003944:	01b78793          	addi	a5,a5,27
80003948:	ff07f793          	andi	a5,a5,-16
8000394c:	fcf42623          	sw	a5,-52(s0)

    // printf("请求分配 %d 字节的内存\n", size);

    while (current)
80003950:	05c0006f          	j	800039ac <malloc+0x98>
    {
        // printf("检查块：地址=%p，大小=%d\n", (void *)current, current->size);
        if (current->free && current->size >= size)
80003954:	fe442783          	lw	a5,-28(s0)
80003958:	0087a783          	lw	a5,8(a5)
8000395c:	04078263          	beqz	a5,800039a0 <malloc+0x8c>
80003960:	fe442783          	lw	a5,-28(s0)
80003964:	0007a783          	lw	a5,0(a5)
80003968:	fcc42703          	lw	a4,-52(s0)
8000396c:	02e7ea63          	bltu	a5,a4,800039a0 <malloc+0x8c>
        {
            size_t current_block_free_space = current->size - size;
80003970:	fe442783          	lw	a5,-28(s0)
80003974:	0007a703          	lw	a4,0(a5)
80003978:	fcc42783          	lw	a5,-52(s0)
8000397c:	40f707b3          	sub	a5,a4,a5
80003980:	fcf42c23          	sw	a5,-40(s0)
            if (current_block_free_space < best_fit_size)
80003984:	fd842703          	lw	a4,-40(s0)
80003988:	fec42783          	lw	a5,-20(s0)
8000398c:	00f77a63          	bgeu	a4,a5,800039a0 <malloc+0x8c>
            {
                best_fit_size = current_block_free_space;
80003990:	fd842783          	lw	a5,-40(s0)
80003994:	fef42623          	sw	a5,-20(s0)
                best_fit_block = current;
80003998:	fe442783          	lw	a5,-28(s0)
8000399c:	fef42423          	sw	a5,-24(s0)
            }
        }
        current = current->next;
800039a0:	fe442783          	lw	a5,-28(s0)
800039a4:	0047a783          	lw	a5,4(a5)
800039a8:	fef42223          	sw	a5,-28(s0)
    while (current)
800039ac:	fe442783          	lw	a5,-28(s0)
800039b0:	fa0792e3          	bnez	a5,80003954 <malloc+0x40>
        // printf("移动到下一个块：地址=%p\n", (void *)current);
    }

    if (!best_fit_block)
800039b4:	fe842783          	lw	a5,-24(s0)
800039b8:	00079e63          	bnez	a5,800039d4 <malloc+0xc0>
    {
        printf("错误：没有足够的空间分配 %d 字节的内存\n", size);
800039bc:	fcc42583          	lw	a1,-52(s0)
800039c0:	800067b7          	lui	a5,0x80006
800039c4:	90078513          	addi	a0,a5,-1792 # 80005900 <_memory_end+0xf8005900>
800039c8:	440010ef          	jal	ra,80004e08 <printf>
        return NULL; // 没有足够的空间
800039cc:	00000793          	li	a5,0
800039d0:	0b80006f          	j	80003a88 <malloc+0x174>
    }

    if (best_fit_size <= sizeof(mem_block) + MIN_BLOCK_SIZE)
800039d4:	fec42703          	lw	a4,-20(s0)
800039d8:	02c00793          	li	a5,44
800039dc:	00e7ec63          	bltu	a5,a4,800039f4 <malloc+0xe0>
    {
        // 如果剩余空间不足以创建一个新的mem_block，则不分割，直接分配整个块
        best_fit_block->free = 0;
800039e0:	fe842783          	lw	a5,-24(s0)
800039e4:	0007a423          	sw	zero,8(a5)
        best_fit_block->next = NULL;
800039e8:	fe842783          	lw	a5,-24(s0)
800039ec:	0007a223          	sw	zero,4(a5)
800039f0:	06c0006f          	j	80003a5c <malloc+0x148>
    }
    else
    {
        // 分割内存块
        mem_block *new_block = (mem_block *)((char *)best_fit_block + size);
800039f4:	fe842703          	lw	a4,-24(s0)
800039f8:	fcc42783          	lw	a5,-52(s0)
800039fc:	00f707b3          	add	a5,a4,a5
80003a00:	fef42023          	sw	a5,-32(s0)
        new_block->size = best_fit_block->size - size;
80003a04:	fe842783          	lw	a5,-24(s0)
80003a08:	0007a703          	lw	a4,0(a5)
80003a0c:	fcc42783          	lw	a5,-52(s0)
80003a10:	40f70733          	sub	a4,a4,a5
80003a14:	fe042783          	lw	a5,-32(s0)
80003a18:	00e7a023          	sw	a4,0(a5)
        new_block->next = best_fit_block->next;
80003a1c:	fe842783          	lw	a5,-24(s0)
80003a20:	0047a703          	lw	a4,4(a5)
80003a24:	fe042783          	lw	a5,-32(s0)
80003a28:	00e7a223          	sw	a4,4(a5)
        new_block->free = 1;
80003a2c:	fe042783          	lw	a5,-32(s0)
80003a30:	00100713          	li	a4,1
80003a34:	00e7a423          	sw	a4,8(a5)

        best_fit_block->size = size - sizeof(mem_block); // 更新当前块的大小，减去管理结构的大小
80003a38:	fcc42783          	lw	a5,-52(s0)
80003a3c:	ff478713          	addi	a4,a5,-12
80003a40:	fe842783          	lw	a5,-24(s0)
80003a44:	00e7a023          	sw	a4,0(a5)
        best_fit_block->free = 0;
80003a48:	fe842783          	lw	a5,-24(s0)
80003a4c:	0007a423          	sw	zero,8(a5)
        best_fit_block->next = new_block;
80003a50:	fe842783          	lw	a5,-24(s0)
80003a54:	fe042703          	lw	a4,-32(s0)
80003a58:	00e7a223          	sw	a4,4(a5)
    }

    // 初始化分配的内存块（不包括管理结构）
    void *allocated_memory = (void *)(best_fit_block + 1);
80003a5c:	fe842783          	lw	a5,-24(s0)
80003a60:	00c78793          	addi	a5,a5,12
80003a64:	fcf42e23          	sw	a5,-36(s0)
    memset(allocated_memory, 0, best_fit_block->size - sizeof(mem_block));
80003a68:	fe842783          	lw	a5,-24(s0)
80003a6c:	0007a783          	lw	a5,0(a5)
80003a70:	ff478793          	addi	a5,a5,-12
80003a74:	00078613          	mv	a2,a5
80003a78:	00000593          	li	a1,0
80003a7c:	fdc42503          	lw	a0,-36(s0)
80003a80:	de9ff0ef          	jal	ra,80003868 <memset>

    // printf("分配了 %d 字节的内存\n", size);
    // printf("分配后块：地址=%p，大小=%d\n", (void *)best_fit_block, best_fit_block->size);
    // printf("新块：地址=%p，大小=%d\n\n", (void *)best_fit_block->next, best_fit_block->next ? best_fit_block->next->size : 0);
    return allocated_memory;
80003a84:	fdc42783          	lw	a5,-36(s0)
}
80003a88:	00078513          	mv	a0,a5
80003a8c:	03c12083          	lw	ra,60(sp)
80003a90:	03812403          	lw	s0,56(sp)
80003a94:	04010113          	addi	sp,sp,64
80003a98:	00008067          	ret

80003a9c <free>:

void free(void *ptr)
{
80003a9c:	fd010113          	addi	sp,sp,-48
80003aa0:	02112623          	sw	ra,44(sp)
80003aa4:	02812423          	sw	s0,40(sp)
80003aa8:	03010413          	addi	s0,sp,48
80003aac:	fca42e23          	sw	a0,-36(s0)
    if (!ptr)
80003ab0:	fdc42783          	lw	a5,-36(s0)
80003ab4:	00079a63          	bnez	a5,80003ac8 <free+0x2c>
    {
        printf("警告：尝试释放NULL指针\n");
80003ab8:	800067b7          	lui	a5,0x80006
80003abc:	93c78513          	addi	a0,a5,-1732 # 8000593c <_memory_end+0xf800593c>
80003ac0:	348010ef          	jal	ra,80004e08 <printf>
        return;
80003ac4:	1040006f          	j	80003bc8 <free+0x12c>
    }
    mem_block *block_to_free = (mem_block *)((char *)ptr - sizeof(mem_block));
80003ac8:	fdc42783          	lw	a5,-36(s0)
80003acc:	ff478793          	addi	a5,a5,-12
80003ad0:	fef42223          	sw	a5,-28(s0)
    block_to_free->free = 1;
80003ad4:	fe442783          	lw	a5,-28(s0)
80003ad8:	00100713          	li	a4,1
80003adc:	00e7a423          	sw	a4,8(a5)

    // printf("释放块：地址=%p，大小=%d\n\n", (void *)block_to_free, block_to_free->size);

    // 合并空闲块
    mem_block *current = free_list;
80003ae0:	800067b7          	lui	a5,0x80006
80003ae4:	0047a783          	lw	a5,4(a5) # 80006004 <_memory_end+0xf8006004>
80003ae8:	fef42623          	sw	a5,-20(s0)
    mem_block *prev = NULL;
80003aec:	fe042423          	sw	zero,-24(s0)
    while (current)
80003af0:	0c80006f          	j	80003bb8 <free+0x11c>
    {
        if (current == block_to_free)
80003af4:	fec42703          	lw	a4,-20(s0)
80003af8:	fe442783          	lw	a5,-28(s0)
80003afc:	0af71463          	bne	a4,a5,80003ba4 <free+0x108>
        {
            // 如果前一个块是空闲的，则合并
            if (prev && prev->free)
80003b00:	fe842783          	lw	a5,-24(s0)
80003b04:	04078463          	beqz	a5,80003b4c <free+0xb0>
80003b08:	fe842783          	lw	a5,-24(s0)
80003b0c:	0087a783          	lw	a5,8(a5)
80003b10:	02078e63          	beqz	a5,80003b4c <free+0xb0>
            {
                prev->size += current->size + sizeof(mem_block);
80003b14:	fe842783          	lw	a5,-24(s0)
80003b18:	0007a703          	lw	a4,0(a5)
80003b1c:	fec42783          	lw	a5,-20(s0)
80003b20:	0007a783          	lw	a5,0(a5)
80003b24:	00f707b3          	add	a5,a4,a5
80003b28:	00c78713          	addi	a4,a5,12
80003b2c:	fe842783          	lw	a5,-24(s0)
80003b30:	00e7a023          	sw	a4,0(a5)
                prev->next = current->next;
80003b34:	fec42783          	lw	a5,-20(s0)
80003b38:	0047a703          	lw	a4,4(a5)
80003b3c:	fe842783          	lw	a5,-24(s0)
80003b40:	00e7a223          	sw	a4,4(a5)
                current = prev; // 更新当前指针以指向合并后的块
80003b44:	fe842783          	lw	a5,-24(s0)
80003b48:	fef42623          	sw	a5,-20(s0)
            }
            // 检查并合并下一个空闲块
            if (current->next && current->next->free)
80003b4c:	fec42783          	lw	a5,-20(s0)
80003b50:	0047a783          	lw	a5,4(a5)
80003b54:	06078863          	beqz	a5,80003bc4 <free+0x128>
80003b58:	fec42783          	lw	a5,-20(s0)
80003b5c:	0047a783          	lw	a5,4(a5)
80003b60:	0087a783          	lw	a5,8(a5)
80003b64:	06078063          	beqz	a5,80003bc4 <free+0x128>
            {
                current->size += current->next->size + sizeof(mem_block);
80003b68:	fec42783          	lw	a5,-20(s0)
80003b6c:	0007a703          	lw	a4,0(a5)
80003b70:	fec42783          	lw	a5,-20(s0)
80003b74:	0047a783          	lw	a5,4(a5)
80003b78:	0007a783          	lw	a5,0(a5)
80003b7c:	00f707b3          	add	a5,a4,a5
80003b80:	00c78713          	addi	a4,a5,12
80003b84:	fec42783          	lw	a5,-20(s0)
80003b88:	00e7a023          	sw	a4,0(a5)
                current->next = current->next->next;
80003b8c:	fec42783          	lw	a5,-20(s0)
80003b90:	0047a783          	lw	a5,4(a5)
80003b94:	0047a703          	lw	a4,4(a5)
80003b98:	fec42783          	lw	a5,-20(s0)
80003b9c:	00e7a223          	sw	a4,4(a5)
            }
            break;
80003ba0:	0240006f          	j	80003bc4 <free+0x128>
        }
        prev = current;
80003ba4:	fec42783          	lw	a5,-20(s0)
80003ba8:	fef42423          	sw	a5,-24(s0)
        current = current->next;
80003bac:	fec42783          	lw	a5,-20(s0)
80003bb0:	0047a783          	lw	a5,4(a5)
80003bb4:	fef42623          	sw	a5,-20(s0)
    while (current)
80003bb8:	fec42783          	lw	a5,-20(s0)
80003bbc:	f2079ce3          	bnez	a5,80003af4 <free+0x58>
80003bc0:	0080006f          	j	80003bc8 <free+0x12c>
            break;
80003bc4:	00000013          	nop
    }
}
80003bc8:	02c12083          	lw	ra,44(sp)
80003bcc:	02812403          	lw	s0,40(sp)
80003bd0:	03010113          	addi	sp,sp,48
80003bd4:	00008067          	ret

80003bd8 <print_blocks>:

void print_blocks(void)
{
80003bd8:	fe010113          	addi	sp,sp,-32
80003bdc:	00112e23          	sw	ra,28(sp)
80003be0:	00812c23          	sw	s0,24(sp)
80003be4:	02010413          	addi	s0,sp,32
    void *block_ptr = memory_pool;
80003be8:	80b067b7          	lui	a5,0x80b06
80003bec:	71c78793          	addi	a5,a5,1820 # 80b0671c <_memory_end+0xf8b0671c>
80003bf0:	fef42623          	sw	a5,-20(s0)
    printf("-- start to print blocks --\n");
80003bf4:	800067b7          	lui	a5,0x80006
80003bf8:	96078513          	addi	a0,a5,-1696 # 80005960 <_memory_end+0xf8005960>
80003bfc:	20c010ef          	jal	ra,80004e08 <printf>
    do
    {
        printf("\tblock: %p, size: %d, used: %d\n", block_ptr,
80003c00:	fec42783          	lw	a5,-20(s0)
80003c04:	0007a703          	lw	a4,0(a5)
               block_get_size(block_ptr), block_is_used(block_ptr));
80003c08:	fec42783          	lw	a5,-20(s0)
80003c0c:	0087a783          	lw	a5,8(a5)
        printf("\tblock: %p, size: %d, used: %d\n", block_ptr,
80003c10:	0017b793          	seqz	a5,a5
80003c14:	0ff7f793          	andi	a5,a5,255
80003c18:	00078693          	mv	a3,a5
80003c1c:	00070613          	mv	a2,a4
80003c20:	fec42583          	lw	a1,-20(s0)
80003c24:	800067b7          	lui	a5,0x80006
80003c28:	98078513          	addi	a0,a5,-1664 # 80005980 <_memory_end+0xf8005980>
80003c2c:	1dc010ef          	jal	ra,80004e08 <printf>
        block_ptr = block_get_next(block_ptr);
80003c30:	fec42783          	lw	a5,-20(s0)
80003c34:	0047a783          	lw	a5,4(a5)
80003c38:	fef42623          	sw	a5,-20(s0)
    } while (block_ptr);
80003c3c:	fec42783          	lw	a5,-20(s0)
80003c40:	fc0790e3          	bnez	a5,80003c00 <print_blocks+0x28>
    printf("-- end to print blocks --\n");
80003c44:	800067b7          	lui	a5,0x80006
80003c48:	9a078513          	addi	a0,a5,-1632 # 800059a0 <_memory_end+0xf80059a0>
80003c4c:	1bc010ef          	jal	ra,80004e08 <printf>
}
80003c50:	00000013          	nop
80003c54:	01c12083          	lw	ra,28(sp)
80003c58:	01812403          	lw	s0,24(sp)
80003c5c:	02010113          	addi	sp,sp,32
80003c60:	00008067          	ret

80003c64 <print_block>:

void print_block(void *block_ptr)
{
80003c64:	fd010113          	addi	sp,sp,-48
80003c68:	02112623          	sw	ra,44(sp)
80003c6c:	02812423          	sw	s0,40(sp)
80003c70:	03010413          	addi	s0,sp,48
80003c74:	fca42e23          	sw	a0,-36(s0)
    mem_block *block_info = (mem_block *)(block_ptr - sizeof(mem_block));
80003c78:	fdc42783          	lw	a5,-36(s0)
80003c7c:	ff478793          	addi	a5,a5,-12
80003c80:	fef42223          	sw	a5,-28(s0)
    void *block_end = block_ptr + block_info->size;
80003c84:	fe442783          	lw	a5,-28(s0)
80003c88:	0007a783          	lw	a5,0(a5)
80003c8c:	fdc42703          	lw	a4,-36(s0)
80003c90:	00f707b3          	add	a5,a4,a5
80003c94:	fef42023          	sw	a5,-32(s0)
    int byte_count = 1;
80003c98:	00100793          	li	a5,1
80003c9c:	fef42623          	sw	a5,-20(s0)
    int *int_block_ptr = (int *)block_ptr;
80003ca0:	fdc42783          	lw	a5,-36(s0)
80003ca4:	fef42423          	sw	a5,-24(s0)
    for (; int_block_ptr < block_end; int_block_ptr++, byte_count++)
80003ca8:	0640006f          	j	80003d0c <print_block+0xa8>
    {
        printf("%d", (*int_block_ptr));
80003cac:	fe842783          	lw	a5,-24(s0)
80003cb0:	0007a783          	lw	a5,0(a5)
80003cb4:	00078593          	mv	a1,a5
80003cb8:	800067b7          	lui	a5,0x80006
80003cbc:	9bc78513          	addi	a0,a5,-1604 # 800059bc <_memory_end+0xf80059bc>
80003cc0:	148010ef          	jal	ra,80004e08 <printf>
        if (byte_count % 4 == 0)
80003cc4:	fec42783          	lw	a5,-20(s0)
80003cc8:	0037f793          	andi	a5,a5,3
80003ccc:	00079863          	bnez	a5,80003cdc <print_block+0x78>
            printf(" ");
80003cd0:	800067b7          	lui	a5,0x80006
80003cd4:	9c078513          	addi	a0,a5,-1600 # 800059c0 <_memory_end+0xf80059c0>
80003cd8:	130010ef          	jal	ra,80004e08 <printf>
        if (byte_count % 32 == 0)
80003cdc:	fec42783          	lw	a5,-20(s0)
80003ce0:	01f7f793          	andi	a5,a5,31
80003ce4:	00079863          	bnez	a5,80003cf4 <print_block+0x90>
            printf("\n");
80003ce8:	800067b7          	lui	a5,0x80006
80003cec:	9c478513          	addi	a0,a5,-1596 # 800059c4 <_memory_end+0xf80059c4>
80003cf0:	118010ef          	jal	ra,80004e08 <printf>
    for (; int_block_ptr < block_end; int_block_ptr++, byte_count++)
80003cf4:	fe842783          	lw	a5,-24(s0)
80003cf8:	00478793          	addi	a5,a5,4
80003cfc:	fef42423          	sw	a5,-24(s0)
80003d00:	fec42783          	lw	a5,-20(s0)
80003d04:	00178793          	addi	a5,a5,1
80003d08:	fef42623          	sw	a5,-20(s0)
80003d0c:	fe842703          	lw	a4,-24(s0)
80003d10:	fe042783          	lw	a5,-32(s0)
80003d14:	f8f76ce3          	bltu	a4,a5,80003cac <print_block+0x48>
    }
    printf("\n\n");
80003d18:	800067b7          	lui	a5,0x80006
80003d1c:	9c878513          	addi	a0,a5,-1592 # 800059c8 <_memory_end+0xf80059c8>
80003d20:	0e8010ef          	jal	ra,80004e08 <printf>
80003d24:	00000013          	nop
80003d28:	02c12083          	lw	ra,44(sp)
80003d2c:	02812403          	lw	s0,40(sp)
80003d30:	03010113          	addi	sp,sp,48
80003d34:	00008067          	ret

80003d38 <handle_syscall>:
    [SYS_uart_putc] = {(void *)uart_putc, 1} // 新增系统调用
};

// 处理系统调用
int handle_syscall(reg_t epc, reg_t cause)
{
80003d38:	fc010113          	addi	sp,sp,-64
80003d3c:	02112e23          	sw	ra,60(sp)
80003d40:	02812c23          	sw	s0,56(sp)
80003d44:	04010413          	addi	s0,sp,64
80003d48:	fca42623          	sw	a0,-52(s0)
80003d4c:	fcb42423          	sw	a1,-56(s0)
    // 确认当前有正在运行的任务
    if (_current < 0) {
80003d50:	800067b7          	lui	a5,0x80006
80003d54:	0007a783          	lw	a5,0(a5) # 80006000 <_memory_end+0xf8006000>
80003d58:	0007dc63          	bgez	a5,80003d70 <handle_syscall+0x38>
        printf("无活动任务执行系统调用\n");
80003d5c:	800067b7          	lui	a5,0x80006
80003d60:	9cc78513          	addi	a0,a5,-1588 # 800059cc <_memory_end+0xf80059cc>
80003d64:	0a4010ef          	jal	ra,80004e08 <printf>
        return -1;
80003d68:	fff00793          	li	a5,-1
80003d6c:	2380006f          	j	80003fa4 <handle_syscall+0x26c>
    }
    
    // 从已保存的上下文中获取真正的系统调用参数
    reg_t syscall_num = tasks[_current].ctx.a7;  // 系统调用号
80003d70:	800067b7          	lui	a5,0x80006
80003d74:	0007a683          	lw	a3,0(a5) # 80006000 <_memory_end+0xf8006000>
80003d78:	80b067b7          	lui	a5,0x80b06
80003d7c:	07078713          	addi	a4,a5,112 # 80b06070 <_memory_end+0xf8b06070>
80003d80:	09c00793          	li	a5,156
80003d84:	02f687b3          	mul	a5,a3,a5
80003d88:	00f707b3          	add	a5,a4,a5
80003d8c:	0407a783          	lw	a5,64(a5)
80003d90:	fef42623          	sw	a5,-20(s0)
    reg_t a0 = tasks[_current].ctx.a0;
80003d94:	800067b7          	lui	a5,0x80006
80003d98:	0007a683          	lw	a3,0(a5) # 80006000 <_memory_end+0xf8006000>
80003d9c:	80b067b7          	lui	a5,0x80b06
80003da0:	07078713          	addi	a4,a5,112 # 80b06070 <_memory_end+0xf8b06070>
80003da4:	09c00793          	li	a5,156
80003da8:	02f687b3          	mul	a5,a3,a5
80003dac:	00f707b3          	add	a5,a4,a5
80003db0:	0247a783          	lw	a5,36(a5)
80003db4:	fef42423          	sw	a5,-24(s0)
    reg_t a1 = tasks[_current].ctx.a1;
80003db8:	800067b7          	lui	a5,0x80006
80003dbc:	0007a683          	lw	a3,0(a5) # 80006000 <_memory_end+0xf8006000>
80003dc0:	80b067b7          	lui	a5,0x80b06
80003dc4:	07078713          	addi	a4,a5,112 # 80b06070 <_memory_end+0xf8b06070>
80003dc8:	09c00793          	li	a5,156
80003dcc:	02f687b3          	mul	a5,a3,a5
80003dd0:	00f707b3          	add	a5,a4,a5
80003dd4:	0287a783          	lw	a5,40(a5)
80003dd8:	fef42223          	sw	a5,-28(s0)
    reg_t a2 = tasks[_current].ctx.a2;
80003ddc:	800067b7          	lui	a5,0x80006
80003de0:	0007a683          	lw	a3,0(a5) # 80006000 <_memory_end+0xf8006000>
80003de4:	80b067b7          	lui	a5,0x80b06
80003de8:	07078713          	addi	a4,a5,112 # 80b06070 <_memory_end+0xf8b06070>
80003dec:	09c00793          	li	a5,156
80003df0:	02f687b3          	mul	a5,a3,a5
80003df4:	00f707b3          	add	a5,a4,a5
80003df8:	02c7a783          	lw	a5,44(a5)
80003dfc:	fef42023          	sw	a5,-32(s0)
    reg_t a3 = tasks[_current].ctx.a3;
80003e00:	800067b7          	lui	a5,0x80006
80003e04:	0007a683          	lw	a3,0(a5) # 80006000 <_memory_end+0xf8006000>
80003e08:	80b067b7          	lui	a5,0x80b06
80003e0c:	07078713          	addi	a4,a5,112 # 80b06070 <_memory_end+0xf8b06070>
80003e10:	09c00793          	li	a5,156
80003e14:	02f687b3          	mul	a5,a3,a5
80003e18:	00f707b3          	add	a5,a4,a5
80003e1c:	0307a783          	lw	a5,48(a5)
80003e20:	fcf42e23          	sw	a5,-36(s0)
    reg_t a4 = tasks[_current].ctx.a4;
80003e24:	800067b7          	lui	a5,0x80006
80003e28:	0007a683          	lw	a3,0(a5) # 80006000 <_memory_end+0xf8006000>
80003e2c:	80b067b7          	lui	a5,0x80b06
80003e30:	07078713          	addi	a4,a5,112 # 80b06070 <_memory_end+0xf8b06070>
80003e34:	09c00793          	li	a5,156
80003e38:	02f687b3          	mul	a5,a3,a5
80003e3c:	00f707b3          	add	a5,a4,a5
80003e40:	0347a783          	lw	a5,52(a5)
80003e44:	fcf42c23          	sw	a5,-40(s0)
    
    // 调试输出
    printf("系统调用: num=%d, a0=%p\n", syscall_num, (void*)a0);
80003e48:	fe842783          	lw	a5,-24(s0)
80003e4c:	00078613          	mv	a2,a5
80003e50:	fec42583          	lw	a1,-20(s0)
80003e54:	800067b7          	lui	a5,0x80006
80003e58:	9f078513          	addi	a0,a5,-1552 # 800059f0 <_memory_end+0xf80059f0>
80003e5c:	7ad000ef          	jal	ra,80004e08 <printf>
    
    if (syscall_num > 0 && syscall_num < sizeof(syscalls)/sizeof(syscalls[0]) && syscalls[syscall_num].func)
80003e60:	fec42783          	lw	a5,-20(s0)
80003e64:	12078663          	beqz	a5,80003f90 <handle_syscall+0x258>
80003e68:	fec42703          	lw	a4,-20(s0)
80003e6c:	00900793          	li	a5,9
80003e70:	12e7e063          	bltu	a5,a4,80003f90 <handle_syscall+0x258>
80003e74:	800067b7          	lui	a5,0x80006
80003e78:	00878713          	addi	a4,a5,8 # 80006008 <_memory_end+0xf8006008>
80003e7c:	fec42783          	lw	a5,-20(s0)
80003e80:	00379793          	slli	a5,a5,0x3
80003e84:	00f707b3          	add	a5,a4,a5
80003e88:	0007a783          	lw	a5,0(a5)
80003e8c:	10078263          	beqz	a5,80003f90 <handle_syscall+0x258>
    {
        void *func = syscalls[syscall_num].func;
80003e90:	800067b7          	lui	a5,0x80006
80003e94:	00878713          	addi	a4,a5,8 # 80006008 <_memory_end+0xf8006008>
80003e98:	fec42783          	lw	a5,-20(s0)
80003e9c:	00379793          	slli	a5,a5,0x3
80003ea0:	00f707b3          	add	a5,a4,a5
80003ea4:	0007a783          	lw	a5,0(a5)
80003ea8:	fcf42a23          	sw	a5,-44(s0)
        int param_count = syscalls[syscall_num].param_count;
80003eac:	800067b7          	lui	a5,0x80006
80003eb0:	00878713          	addi	a4,a5,8 # 80006008 <_memory_end+0xf8006008>
80003eb4:	fec42783          	lw	a5,-20(s0)
80003eb8:	00379793          	slli	a5,a5,0x3
80003ebc:	00f707b3          	add	a5,a4,a5
80003ec0:	0047a783          	lw	a5,4(a5)
80003ec4:	fcf42823          	sw	a5,-48(s0)
80003ec8:	fd042703          	lw	a4,-48(s0)
80003ecc:	00400793          	li	a5,4
80003ed0:	0ae7ec63          	bltu	a5,a4,80003f88 <handle_syscall+0x250>
80003ed4:	fd042783          	lw	a5,-48(s0)
80003ed8:	00279713          	slli	a4,a5,0x2
80003edc:	800067b7          	lui	a5,0x80006
80003ee0:	a2c78793          	addi	a5,a5,-1492 # 80005a2c <_memory_end+0xf8005a2c>
80003ee4:	00f707b3          	add	a5,a4,a5
80003ee8:	0007a783          	lw	a5,0(a5)
80003eec:	00078067          	jr	a5
        
        // 原有的函数调用逻辑不变
        switch (param_count)
        {
        case 0:
            ((void (*)())func)();
80003ef0:	fd442783          	lw	a5,-44(s0)
80003ef4:	000780e7          	jalr	a5
            return 0;
80003ef8:	00000793          	li	a5,0
80003efc:	0a80006f          	j	80003fa4 <handle_syscall+0x26c>
        case 1:
            return (long)((void *(*)(long))func)(a0);
80003f00:	fd442703          	lw	a4,-44(s0)
80003f04:	fe842783          	lw	a5,-24(s0)
80003f08:	00078513          	mv	a0,a5
80003f0c:	000700e7          	jalr	a4
80003f10:	00050793          	mv	a5,a0
80003f14:	0900006f          	j	80003fa4 <handle_syscall+0x26c>
        case 2:
            return ((int (*)(long, long))func)(a0, a1);
80003f18:	fd442683          	lw	a3,-44(s0)
80003f1c:	fe842783          	lw	a5,-24(s0)
80003f20:	fe442703          	lw	a4,-28(s0)
80003f24:	00070593          	mv	a1,a4
80003f28:	00078513          	mv	a0,a5
80003f2c:	000680e7          	jalr	a3
80003f30:	00050793          	mv	a5,a0
80003f34:	0700006f          	j	80003fa4 <handle_syscall+0x26c>
        case 3:
            return ((int (*)(long, long, long))func)(a0, a1, a2);
80003f38:	fd442803          	lw	a6,-44(s0)
80003f3c:	fe842783          	lw	a5,-24(s0)
80003f40:	fe442703          	lw	a4,-28(s0)
80003f44:	fe042683          	lw	a3,-32(s0)
80003f48:	00068613          	mv	a2,a3
80003f4c:	00070593          	mv	a1,a4
80003f50:	00078513          	mv	a0,a5
80003f54:	000800e7          	jalr	a6
80003f58:	00050793          	mv	a5,a0
80003f5c:	0480006f          	j	80003fa4 <handle_syscall+0x26c>
        case 4:
            return ((int (*)(long, long, long, long))func)(a0, a1, a2, a3);
80003f60:	fd442803          	lw	a6,-44(s0)
80003f64:	fe842783          	lw	a5,-24(s0)
80003f68:	fe442703          	lw	a4,-28(s0)
80003f6c:	fe042603          	lw	a2,-32(s0)
80003f70:	fdc42683          	lw	a3,-36(s0)
80003f74:	00070593          	mv	a1,a4
80003f78:	00078513          	mv	a0,a5
80003f7c:	000800e7          	jalr	a6
80003f80:	00050793          	mv	a5,a0
80003f84:	0200006f          	j	80003fa4 <handle_syscall+0x26c>
        default:
            return -1;
80003f88:	fff00793          	li	a5,-1
80003f8c:	0180006f          	j	80003fa4 <handle_syscall+0x26c>
        }
    }

    printf("未知的系统调用: %d\n", syscall_num);
80003f90:	fec42583          	lw	a1,-20(s0)
80003f94:	800067b7          	lui	a5,0x80006
80003f98:	a1078513          	addi	a0,a5,-1520 # 80005a10 <_memory_end+0xf8005a10>
80003f9c:	66d000ef          	jal	ra,80004e08 <printf>
    return -1;
80003fa0:	fff00793          	li	a5,-1
80003fa4:	00078513          	mv	a0,a5
80003fa8:	03c12083          	lw	ra,60(sp)
80003fac:	03812403          	lw	s0,56(sp)
80003fb0:	04010113          	addi	sp,sp,64
80003fb4:	00008067          	ret

80003fb8 <uart_init>:

#define uart_read_reg(reg) (*(UART_REG(reg)))
#define uart_write_reg(reg, v) (*(UART_REG(reg)) = (v))

void uart_init()
{
80003fb8:	fe010113          	addi	sp,sp,-32
80003fbc:	00812e23          	sw	s0,28(sp)
80003fc0:	02010413          	addi	s0,sp,32
	/* disable interrupts. */
	uart_write_reg(IER, 0x00);
80003fc4:	100007b7          	lui	a5,0x10000
80003fc8:	00178793          	addi	a5,a5,1 # 10000001 <_heap_size+0x8c06b09>
80003fcc:	00078023          	sb	zero,0(a5)
	 * We use 38.4K when 1.8432 MHZ crystal, so the corresponding value is 3.
	 * And due to the divisor register is two bytes (16 bits), so we need to
	 * split the value of 3(0x0003) into two bytes, DLL stores the low byte,
	 * DLM stores the high byte.
	 */
	uint8_t lcr = uart_read_reg(LCR);
80003fd0:	100007b7          	lui	a5,0x10000
80003fd4:	00378793          	addi	a5,a5,3 # 10000003 <_heap_size+0x8c06b0b>
80003fd8:	0007c783          	lbu	a5,0(a5)
80003fdc:	fef407a3          	sb	a5,-17(s0)
	uart_write_reg(LCR, lcr | (1 << 7));
80003fe0:	100007b7          	lui	a5,0x10000
80003fe4:	00378793          	addi	a5,a5,3 # 10000003 <_heap_size+0x8c06b0b>
80003fe8:	fef44703          	lbu	a4,-17(s0)
80003fec:	f8076713          	ori	a4,a4,-128
80003ff0:	0ff77713          	andi	a4,a4,255
80003ff4:	00e78023          	sb	a4,0(a5)
	uart_write_reg(DLL, 0x03);
80003ff8:	100007b7          	lui	a5,0x10000
80003ffc:	00300713          	li	a4,3
80004000:	00e78023          	sb	a4,0(a5) # 10000000 <_heap_size+0x8c06b08>
	uart_write_reg(DLM, 0x00);
80004004:	100007b7          	lui	a5,0x10000
80004008:	00178793          	addi	a5,a5,1 # 10000001 <_heap_size+0x8c06b09>
8000400c:	00078023          	sb	zero,0(a5)
	 * - number of stop bits：1 bit when word length is 8 bits
	 * - no parity
	 * - no break control
	 * - disabled baud latch
	 */
	lcr = 0;
80004010:	fe0407a3          	sb	zero,-17(s0)
	uart_write_reg(LCR, lcr | (3 << 0));
80004014:	100007b7          	lui	a5,0x10000
80004018:	00378793          	addi	a5,a5,3 # 10000003 <_heap_size+0x8c06b0b>
8000401c:	fef44703          	lbu	a4,-17(s0)
80004020:	00376713          	ori	a4,a4,3
80004024:	0ff77713          	andi	a4,a4,255
80004028:	00e78023          	sb	a4,0(a5)
}
8000402c:	00000013          	nop
80004030:	01c12403          	lw	s0,28(sp)
80004034:	02010113          	addi	sp,sp,32
80004038:	00008067          	ret

8000403c <uart_putc>:

int uart_putc(char ch)
{
8000403c:	fe010113          	addi	sp,sp,-32
80004040:	00812e23          	sw	s0,28(sp)
80004044:	02010413          	addi	s0,sp,32
80004048:	00050793          	mv	a5,a0
8000404c:	fef407a3          	sb	a5,-17(s0)
	while ((uart_read_reg(LSR) & LSR_TX_IDLE) == 0);
80004050:	00000013          	nop
80004054:	100007b7          	lui	a5,0x10000
80004058:	00578793          	addi	a5,a5,5 # 10000005 <_heap_size+0x8c06b0d>
8000405c:	0007c783          	lbu	a5,0(a5)
80004060:	0ff7f793          	andi	a5,a5,255
80004064:	0207f793          	andi	a5,a5,32
80004068:	fe0786e3          	beqz	a5,80004054 <uart_putc+0x18>
	return uart_write_reg(THR, ch);
8000406c:	10000737          	lui	a4,0x10000
80004070:	fef44783          	lbu	a5,-17(s0)
80004074:	00f70023          	sb	a5,0(a4) # 10000000 <_heap_size+0x8c06b08>
}
80004078:	00078513          	mv	a0,a5
8000407c:	01c12403          	lw	s0,28(sp)
80004080:	02010113          	addi	sp,sp,32
80004084:	00008067          	ret

80004088 <uart_puts>:

void uart_puts(char *s)
{
80004088:	fe010113          	addi	sp,sp,-32
8000408c:	00112e23          	sw	ra,28(sp)
80004090:	00812c23          	sw	s0,24(sp)
80004094:	02010413          	addi	s0,sp,32
80004098:	fea42623          	sw	a0,-20(s0)
	while (*s) {
8000409c:	01c0006f          	j	800040b8 <uart_puts+0x30>
		uart_putc(*s++);
800040a0:	fec42783          	lw	a5,-20(s0)
800040a4:	00178713          	addi	a4,a5,1
800040a8:	fee42623          	sw	a4,-20(s0)
800040ac:	0007c783          	lbu	a5,0(a5)
800040b0:	00078513          	mv	a0,a5
800040b4:	f89ff0ef          	jal	ra,8000403c <uart_putc>
	while (*s) {
800040b8:	fec42783          	lw	a5,-20(s0)
800040bc:	0007c783          	lbu	a5,0(a5)
800040c0:	fe0790e3          	bnez	a5,800040a0 <uart_puts+0x18>
	}
}
800040c4:	00000013          	nop
800040c8:	00000013          	nop
800040cc:	01c12083          	lw	ra,28(sp)
800040d0:	01812403          	lw	s0,24(sp)
800040d4:	02010113          	addi	sp,sp,32
800040d8:	00008067          	ret

800040dc <uart_getc>:

int uart_getc(void)
{
800040dc:	ff010113          	addi	sp,sp,-16
800040e0:	00812623          	sw	s0,12(sp)
800040e4:	01010413          	addi	s0,sp,16
	if (uart_read_reg(LSR) & LSR_RX_READY){
800040e8:	100007b7          	lui	a5,0x10000
800040ec:	00578793          	addi	a5,a5,5 # 10000005 <_heap_size+0x8c06b0d>
800040f0:	0007c783          	lbu	a5,0(a5)
800040f4:	0ff7f793          	andi	a5,a5,255
800040f8:	0017f793          	andi	a5,a5,1
800040fc:	00078a63          	beqz	a5,80004110 <uart_getc+0x34>
		return uart_read_reg(RHR);
80004100:	100007b7          	lui	a5,0x10000
80004104:	0007c783          	lbu	a5,0(a5) # 10000000 <_heap_size+0x8c06b08>
80004108:	0ff7f793          	andi	a5,a5,255
8000410c:	0080006f          	j	80004114 <uart_getc+0x38>
	} else {
		return -1;
80004110:	fff00793          	li	a5,-1
	}
}
80004114:	00078513          	mv	a0,a5
80004118:	00c12403          	lw	s0,12(sp)
8000411c:	01010113          	addi	sp,sp,16
80004120:	00008067          	ret

80004124 <uart_isr>:

void uart_isr(void)
{
80004124:	fe010113          	addi	sp,sp,-32
80004128:	00112e23          	sw	ra,28(sp)
8000412c:	00812c23          	sw	s0,24(sp)
80004130:	02010413          	addi	s0,sp,32
	while (1) {
		int c = uart_getc();
80004134:	fa9ff0ef          	jal	ra,800040dc <uart_getc>
80004138:	fea42623          	sw	a0,-20(s0)
		if (c == -1) {
8000413c:	fec42703          	lw	a4,-20(s0)
80004140:	fff00793          	li	a5,-1
80004144:	02f70063          	beq	a4,a5,80004164 <uart_isr+0x40>
			break;
		} else {
			uart_putc((char)c);
80004148:	fec42783          	lw	a5,-20(s0)
8000414c:	0ff7f793          	andi	a5,a5,255
80004150:	00078513          	mv	a0,a5
80004154:	ee9ff0ef          	jal	ra,8000403c <uart_putc>
			uart_putc('\n');
80004158:	00a00513          	li	a0,10
8000415c:	ee1ff0ef          	jal	ra,8000403c <uart_putc>
	while (1) {
80004160:	fd5ff06f          	j	80004134 <uart_isr+0x10>
			break;
80004164:	00000013          	nop
		}
	}
}
80004168:	00000013          	nop
8000416c:	01c12083          	lw	ra,28(sp)
80004170:	01812403          	lw	s0,24(sp)
80004174:	02010113          	addi	sp,sp,32
80004178:	00008067          	ret

8000417c <r_tp>:
{
8000417c:	fe010113          	addi	sp,sp,-32
80004180:	00812e23          	sw	s0,28(sp)
80004184:	02010413          	addi	s0,sp,32
	asm volatile("mv %0, tp" : "=r" (x) );
80004188:	00020793          	mv	a5,tp
8000418c:	fef42623          	sw	a5,-20(s0)
	return x;
80004190:	fec42783          	lw	a5,-20(s0)
}
80004194:	00078513          	mv	a0,a5
80004198:	01c12403          	lw	s0,28(sp)
8000419c:	02010113          	addi	sp,sp,32
800041a0:	00008067          	ret

800041a4 <r_mstatus>:
{
800041a4:	fe010113          	addi	sp,sp,-32
800041a8:	00812e23          	sw	s0,28(sp)
800041ac:	02010413          	addi	s0,sp,32
	asm volatile("csrr %0, mstatus" : "=r" (x) );
800041b0:	300027f3          	csrr	a5,mstatus
800041b4:	fef42623          	sw	a5,-20(s0)
	return x;
800041b8:	fec42783          	lw	a5,-20(s0)
}
800041bc:	00078513          	mv	a0,a5
800041c0:	01c12403          	lw	s0,28(sp)
800041c4:	02010113          	addi	sp,sp,32
800041c8:	00008067          	ret

800041cc <w_mstatus>:
{
800041cc:	fe010113          	addi	sp,sp,-32
800041d0:	00812e23          	sw	s0,28(sp)
800041d4:	02010413          	addi	s0,sp,32
800041d8:	fea42623          	sw	a0,-20(s0)
	asm volatile("csrw mstatus, %0" : : "r" (x));
800041dc:	fec42783          	lw	a5,-20(s0)
800041e0:	30079073          	csrw	mstatus,a5
}
800041e4:	00000013          	nop
800041e8:	01c12403          	lw	s0,28(sp)
800041ec:	02010113          	addi	sp,sp,32
800041f0:	00008067          	ret

800041f4 <r_mie>:
{
800041f4:	fe010113          	addi	sp,sp,-32
800041f8:	00812e23          	sw	s0,28(sp)
800041fc:	02010413          	addi	s0,sp,32
	asm volatile("csrr %0, mie" : "=r" (x) );
80004200:	304027f3          	csrr	a5,mie
80004204:	fef42623          	sw	a5,-20(s0)
	return x;
80004208:	fec42783          	lw	a5,-20(s0)
}
8000420c:	00078513          	mv	a0,a5
80004210:	01c12403          	lw	s0,28(sp)
80004214:	02010113          	addi	sp,sp,32
80004218:	00008067          	ret

8000421c <w_mie>:
{
8000421c:	fe010113          	addi	sp,sp,-32
80004220:	00812e23          	sw	s0,28(sp)
80004224:	02010413          	addi	s0,sp,32
80004228:	fea42623          	sw	a0,-20(s0)
	asm volatile("csrw mie, %0" : : "r" (x));
8000422c:	fec42783          	lw	a5,-20(s0)
80004230:	30479073          	csrw	mie,a5
}
80004234:	00000013          	nop
80004238:	01c12403          	lw	s0,28(sp)
8000423c:	02010113          	addi	sp,sp,32
80004240:	00008067          	ret

80004244 <plic_init>:
#include "os.h"

void plic_init(void)
{
80004244:	fe010113          	addi	sp,sp,-32
80004248:	00112e23          	sw	ra,28(sp)
8000424c:	00812c23          	sw	s0,24(sp)
80004250:	02010413          	addi	s0,sp,32
	int hart = r_tp();
80004254:	f29ff0ef          	jal	ra,8000417c <r_tp>
80004258:	00050793          	mv	a5,a0
8000425c:	fef42623          	sw	a5,-20(s0)
	 * Priority 1 is the lowest active priority, and priority 7 is the highest. 
	 * Ties between global interrupts of the same priority are broken by 
	 * the Interrupt ID; interrupts with the lowest ID have the highest 
	 * effective priority.
	 */
	*(uint32_t*)PLIC_PRIORITY(UART0_IRQ) = 1;
80004260:	0c0007b7          	lui	a5,0xc000
80004264:	02878793          	addi	a5,a5,40 # c000028 <_heap_size+0x4c06b30>
80004268:	00100713          	li	a4,1
8000426c:	00e7a023          	sw	a4,0(a5)
	 * Enable UART0
	 *
	 * Each global interrupt can be enabled by setting the corresponding 
	 * bit in the enables registers.
	 */
	*(uint32_t*)PLIC_MENABLE(hart)= (1 << UART0_IRQ);
80004270:	fec42703          	lw	a4,-20(s0)
80004274:	001807b7          	lui	a5,0x180
80004278:	04078793          	addi	a5,a5,64 # 180040 <STACK_SIZE+0x17fc40>
8000427c:	00f707b3          	add	a5,a4,a5
80004280:	00779793          	slli	a5,a5,0x7
80004284:	00078713          	mv	a4,a5
80004288:	40000793          	li	a5,1024
8000428c:	00f72023          	sw	a5,0(a4)
	 * Maximum threshold is 7.
	 * For example, a threshold value of zero permits all interrupts with
	 * non-zero priority, whereas a value of 7 masks all interrupts.
	 * Notice, the threshold is global for PLIC, not for each interrupt source.
	 */
	*(uint32_t*)PLIC_MTHRESHOLD(hart) = 0;
80004290:	fec42703          	lw	a4,-20(s0)
80004294:	0000c7b7          	lui	a5,0xc
80004298:	20078793          	addi	a5,a5,512 # c200 <STACK_SIZE+0xbe00>
8000429c:	00f707b3          	add	a5,a4,a5
800042a0:	00c79793          	slli	a5,a5,0xc
800042a4:	0007a023          	sw	zero,0(a5)

	/* enable machine-mode external interrupts. */
	w_mie(r_mie() | MIE_MEIE);
800042a8:	f4dff0ef          	jal	ra,800041f4 <r_mie>
800042ac:	00050713          	mv	a4,a0
800042b0:	000017b7          	lui	a5,0x1
800042b4:	80078793          	addi	a5,a5,-2048 # 800 <STACK_SIZE+0x400>
800042b8:	00f767b3          	or	a5,a4,a5
800042bc:	00078513          	mv	a0,a5
800042c0:	f5dff0ef          	jal	ra,8000421c <w_mie>


	/* enable machine-mode global interrupts. */
	w_mstatus(r_mstatus() | MSTATUS_MIE);
800042c4:	ee1ff0ef          	jal	ra,800041a4 <r_mstatus>
800042c8:	00050793          	mv	a5,a0
800042cc:	0087e793          	ori	a5,a5,8
800042d0:	00078513          	mv	a0,a5
800042d4:	ef9ff0ef          	jal	ra,800041cc <w_mstatus>
}
800042d8:	00000013          	nop
800042dc:	01c12083          	lw	ra,28(sp)
800042e0:	01812403          	lw	s0,24(sp)
800042e4:	02010113          	addi	sp,sp,32
800042e8:	00008067          	ret

800042ec <plic_claim>:
 * RETURN VALUE:
 *	the ID of the highest-priority pending interrupt or zero if there 
 *	is no pending interrupt.
 */
int plic_claim(void)
{
800042ec:	fe010113          	addi	sp,sp,-32
800042f0:	00112e23          	sw	ra,28(sp)
800042f4:	00812c23          	sw	s0,24(sp)
800042f8:	02010413          	addi	s0,sp,32
	int hart = r_tp();
800042fc:	e81ff0ef          	jal	ra,8000417c <r_tp>
80004300:	00050793          	mv	a5,a0
80004304:	fef42623          	sw	a5,-20(s0)
	int irq = *(uint32_t*)PLIC_MCLAIM(hart);
80004308:	fec42783          	lw	a5,-20(s0)
8000430c:	00c79713          	slli	a4,a5,0xc
80004310:	0c2007b7          	lui	a5,0xc200
80004314:	00478793          	addi	a5,a5,4 # c200004 <_heap_size+0x4e06b0c>
80004318:	00f707b3          	add	a5,a4,a5
8000431c:	0007a783          	lw	a5,0(a5)
80004320:	fef42423          	sw	a5,-24(s0)
	return irq;
80004324:	fe842783          	lw	a5,-24(s0)
}
80004328:	00078513          	mv	a0,a5
8000432c:	01c12083          	lw	ra,28(sp)
80004330:	01812403          	lw	s0,24(sp)
80004334:	02010113          	addi	sp,sp,32
80004338:	00008067          	ret

8000433c <plic_complete>:
 *	interrupt source that is currently enabled for the target, the completion
 *	is silently ignored.
 * RETURN VALUE: none
 */
void plic_complete(int irq)
{
8000433c:	fd010113          	addi	sp,sp,-48
80004340:	02112623          	sw	ra,44(sp)
80004344:	02812423          	sw	s0,40(sp)
80004348:	03010413          	addi	s0,sp,48
8000434c:	fca42e23          	sw	a0,-36(s0)
	int hart = r_tp();
80004350:	e2dff0ef          	jal	ra,8000417c <r_tp>
80004354:	00050793          	mv	a5,a0
80004358:	fef42623          	sw	a5,-20(s0)
	*(uint32_t*)PLIC_MCOMPLETE(hart) = irq;
8000435c:	fec42783          	lw	a5,-20(s0)
80004360:	00c79713          	slli	a4,a5,0xc
80004364:	0c2007b7          	lui	a5,0xc200
80004368:	00478793          	addi	a5,a5,4 # c200004 <_heap_size+0x4e06b0c>
8000436c:	00f707b3          	add	a5,a4,a5
80004370:	00078713          	mv	a4,a5
80004374:	fdc42783          	lw	a5,-36(s0)
80004378:	00f72023          	sw	a5,0(a4)
}
8000437c:	00000013          	nop
80004380:	02c12083          	lw	ra,44(sp)
80004384:	02812403          	lw	s0,40(sp)
80004388:	03010113          	addi	sp,sp,48
8000438c:	00008067          	ret

80004390 <r_mhartid>:
{
80004390:	fe010113          	addi	sp,sp,-32
80004394:	00812e23          	sw	s0,28(sp)
80004398:	02010413          	addi	s0,sp,32
	asm volatile("csrr %0, mhartid" : "=r" (x) );
8000439c:	f14027f3          	csrr	a5,mhartid
800043a0:	fef42623          	sw	a5,-20(s0)
	return x;
800043a4:	fec42783          	lw	a5,-20(s0)
}
800043a8:	00078513          	mv	a0,a5
800043ac:	01c12403          	lw	s0,28(sp)
800043b0:	02010113          	addi	sp,sp,32
800043b4:	00008067          	ret

800043b8 <r_mie>:
{
800043b8:	fe010113          	addi	sp,sp,-32
800043bc:	00812e23          	sw	s0,28(sp)
800043c0:	02010413          	addi	s0,sp,32
	asm volatile("csrr %0, mie" : "=r" (x) );
800043c4:	304027f3          	csrr	a5,mie
800043c8:	fef42623          	sw	a5,-20(s0)
	return x;
800043cc:	fec42783          	lw	a5,-20(s0)
}
800043d0:	00078513          	mv	a0,a5
800043d4:	01c12403          	lw	s0,28(sp)
800043d8:	02010113          	addi	sp,sp,32
800043dc:	00008067          	ret

800043e0 <w_mie>:
{
800043e0:	fe010113          	addi	sp,sp,-32
800043e4:	00812e23          	sw	s0,28(sp)
800043e8:	02010413          	addi	s0,sp,32
800043ec:	fea42623          	sw	a0,-20(s0)
	asm volatile("csrw mie, %0" : : "r" (x));
800043f0:	fec42783          	lw	a5,-20(s0)
800043f4:	30479073          	csrw	mie,a5
}
800043f8:	00000013          	nop
800043fc:	01c12403          	lw	s0,28(sp)
80004400:	02010113          	addi	sp,sp,32
80004404:	00008067          	ret

80004408 <timer_load>:

static uint32_t _tick = 0;

/* load timer interval(in ticks) for next timer interrupt.*/
void timer_load(int timeout_tick)
{
80004408:	fd010113          	addi	sp,sp,-48
8000440c:	02112623          	sw	ra,44(sp)
80004410:	02812423          	sw	s0,40(sp)
80004414:	03212223          	sw	s2,36(sp)
80004418:	03312023          	sw	s3,32(sp)
8000441c:	03010413          	addi	s0,sp,48
80004420:	fca42e23          	sw	a0,-36(s0)
    /* each CPU has a separate source of timer interrupts. */
    int id = r_mhartid();
80004424:	f6dff0ef          	jal	ra,80004390 <r_mhartid>
80004428:	00050793          	mv	a5,a0
8000442c:	fef42623          	sw	a5,-20(s0)

    *(uint64_t *)CLINT_MTIMECMP(id) = timeout_tick;
80004430:	fec42703          	lw	a4,-20(s0)
80004434:	004017b7          	lui	a5,0x401
80004438:	80078793          	addi	a5,a5,-2048 # 400800 <STACK_SIZE+0x400400>
8000443c:	00f707b3          	add	a5,a4,a5
80004440:	00379793          	slli	a5,a5,0x3
80004444:	00078713          	mv	a4,a5
80004448:	fdc42783          	lw	a5,-36(s0)
8000444c:	00078913          	mv	s2,a5
80004450:	41f7d793          	srai	a5,a5,0x1f
80004454:	00078993          	mv	s3,a5
80004458:	01272023          	sw	s2,0(a4)
8000445c:	01372223          	sw	s3,4(a4)
}
80004460:	00000013          	nop
80004464:	02c12083          	lw	ra,44(sp)
80004468:	02812403          	lw	s0,40(sp)
8000446c:	02412903          	lw	s2,36(sp)
80004470:	02012983          	lw	s3,32(sp)
80004474:	03010113          	addi	sp,sp,48
80004478:	00008067          	ret

8000447c <get_mtimecmp>:

uint32_t get_mtimecmp(void)
{
8000447c:	fe010113          	addi	sp,sp,-32
80004480:	00112e23          	sw	ra,28(sp)
80004484:	00812c23          	sw	s0,24(sp)
80004488:	02010413          	addi	s0,sp,32
    int id = r_mhartid();
8000448c:	f05ff0ef          	jal	ra,80004390 <r_mhartid>
80004490:	00050793          	mv	a5,a0
80004494:	fef42623          	sw	a5,-20(s0)
    volatile uint32_t *mtimecmp_ptr = (volatile uint32_t *)CLINT_MTIMECMP(id);
80004498:	fec42703          	lw	a4,-20(s0)
8000449c:	004017b7          	lui	a5,0x401
800044a0:	80078793          	addi	a5,a5,-2048 # 400800 <STACK_SIZE+0x400400>
800044a4:	00f707b3          	add	a5,a4,a5
800044a8:	00379793          	slli	a5,a5,0x3
800044ac:	fef42423          	sw	a5,-24(s0)
    return *mtimecmp_ptr;
800044b0:	fe842783          	lw	a5,-24(s0)
800044b4:	0007a783          	lw	a5,0(a5)
}
800044b8:	00078513          	mv	a0,a5
800044bc:	01c12083          	lw	ra,28(sp)
800044c0:	01812403          	lw	s0,24(sp)
800044c4:	02010113          	addi	sp,sp,32
800044c8:	00008067          	ret

800044cc <timer_init>:

void timer_init()
{
800044cc:	ff010113          	addi	sp,sp,-16
800044d0:	00112623          	sw	ra,12(sp)
800044d4:	00812423          	sw	s0,8(sp)
800044d8:	01010413          	addi	s0,sp,16
     * are not reset. So we have to init the mtimecmp manually.
     */
    // timer_create(timer_handler, NULL, 1);

    /* enable machine-mode timer interrupts. */
    w_mie(r_mie() | MIE_MTIE);
800044dc:	eddff0ef          	jal	ra,800043b8 <r_mie>
800044e0:	00050793          	mv	a5,a0
800044e4:	0807e793          	ori	a5,a5,128
800044e8:	00078513          	mv	a0,a5
800044ec:	ef5ff0ef          	jal	ra,800043e0 <w_mie>
    /* enable machine-mode global interrupts. */
    // w_mstatus(r_mstatus() | MSTATUS_MIE);
}
800044f0:	00000013          	nop
800044f4:	00c12083          	lw	ra,12(sp)
800044f8:	00812403          	lw	s0,8(sp)
800044fc:	01010113          	addi	sp,sp,16
80004500:	00008067          	ret

80004504 <get_mtime>:

uint32_t get_mtime(void)
{
80004504:	fe010113          	addi	sp,sp,-32
80004508:	00812e23          	sw	s0,28(sp)
8000450c:	02010413          	addi	s0,sp,32
    // 确保地址正确对齐
    volatile uint32_t *mtime_ptr = (volatile uint32_t *)(CLINT_BASE + 0xBFF8);
80004510:	0200c7b7          	lui	a5,0x200c
80004514:	ff878793          	addi	a5,a5,-8 # 200bff8 <STACK_SIZE+0x200bbf8>
80004518:	fef42623          	sw	a5,-20(s0)
    return *mtime_ptr;
8000451c:	fec42783          	lw	a5,-20(s0)
80004520:	0007a783          	lw	a5,0(a5)
}
80004524:	00078513          	mv	a0,a5
80004528:	01c12403          	lw	s0,28(sp)
8000452c:	02010113          	addi	sp,sp,32
80004530:	00008067          	ret

80004534 <timer_create>:

timer *timer_create(void (*handler)(void *arg), void *arg, uint32_t timeout)
{
80004534:	fd010113          	addi	sp,sp,-48
80004538:	02112623          	sw	ra,44(sp)
8000453c:	02812423          	sw	s0,40(sp)
80004540:	03010413          	addi	s0,sp,48
80004544:	fca42e23          	sw	a0,-36(s0)
80004548:	fcb42c23          	sw	a1,-40(s0)
8000454c:	fcc42a23          	sw	a2,-44(s0)
    timer *t = malloc(sizeof(timer));
80004550:	01000513          	li	a0,16
80004554:	bc0ff0ef          	jal	ra,80003914 <malloc>
80004558:	fea42623          	sw	a0,-20(s0)
    if (t == NULL)
8000455c:	fec42783          	lw	a5,-20(s0)
80004560:	00079663          	bnez	a5,8000456c <timer_create+0x38>
    {
        return NULL;
80004564:	00000793          	li	a5,0
80004568:	06c0006f          	j	800045d4 <timer_create+0xa0>
    }
    t->func = handler;
8000456c:	fec42783          	lw	a5,-20(s0)
80004570:	fdc42703          	lw	a4,-36(s0)
80004574:	00e7a023          	sw	a4,0(a5)
    t->arg = arg;
80004578:	fec42783          	lw	a5,-20(s0)
8000457c:	fd842703          	lw	a4,-40(s0)
80004580:	00e7a223          	sw	a4,4(a5)
    t->timeout_tick = get_mtime() + timeout * TIMER_INTERVAL;
80004584:	f81ff0ef          	jal	ra,80004504 <get_mtime>
80004588:	00050693          	mv	a3,a0
8000458c:	fd442703          	lw	a4,-44(s0)
80004590:	009897b7          	lui	a5,0x989
80004594:	68078793          	addi	a5,a5,1664 # 989680 <STACK_SIZE+0x989280>
80004598:	02f707b3          	mul	a5,a4,a5
8000459c:	00f68733          	add	a4,a3,a5
800045a0:	fec42783          	lw	a5,-20(s0)
800045a4:	00e7a423          	sw	a4,8(a5)
    t->next = NULL;
800045a8:	fec42783          	lw	a5,-20(s0)
800045ac:	0007a623          	sw	zero,12(a5)
    timers = insert_to_timer_list(timers, t);
800045b0:	800067b7          	lui	a5,0x80006
800045b4:	0607a783          	lw	a5,96(a5) # 80006060 <_memory_end+0xf8006060>
800045b8:	fec42583          	lw	a1,-20(s0)
800045bc:	00078513          	mv	a0,a5
800045c0:	13d000ef          	jal	ra,80004efc <insert_to_timer_list>
800045c4:	00050713          	mv	a4,a0
800045c8:	800067b7          	lui	a5,0x80006
800045cc:	06e7a023          	sw	a4,96(a5) # 80006060 <_memory_end+0xf8006060>
    // timer_load(timeout); // 确保加载定时器
    return t;
800045d0:	fec42783          	lw	a5,-20(s0)
}
800045d4:	00078513          	mv	a0,a5
800045d8:	02c12083          	lw	ra,44(sp)
800045dc:	02812403          	lw	s0,40(sp)
800045e0:	03010113          	addi	sp,sp,48
800045e4:	00008067          	ret

800045e8 <timer_delete>:

void timer_delete(timer *timer)
{
800045e8:	fe010113          	addi	sp,sp,-32
800045ec:	00112e23          	sw	ra,28(sp)
800045f0:	00812c23          	sw	s0,24(sp)
800045f4:	02010413          	addi	s0,sp,32
800045f8:	fea42623          	sw	a0,-20(s0)
    timers = delete_from_timer_list(timers, timer);
800045fc:	800067b7          	lui	a5,0x80006
80004600:	0607a783          	lw	a5,96(a5) # 80006060 <_memory_end+0xf8006060>
80004604:	fec42583          	lw	a1,-20(s0)
80004608:	00078513          	mv	a0,a5
8000460c:	285000ef          	jal	ra,80005090 <delete_from_timer_list>
80004610:	00050713          	mv	a4,a0
80004614:	800067b7          	lui	a5,0x80006
80004618:	06e7a023          	sw	a4,96(a5) # 80006060 <_memory_end+0xf8006060>
    free(timer);
8000461c:	fec42503          	lw	a0,-20(s0)
80004620:	c7cff0ef          	jal	ra,80003a9c <free>
}
80004624:	00000013          	nop
80004628:	01c12083          	lw	ra,28(sp)
8000462c:	01812403          	lw	s0,24(sp)
80004630:	02010113          	addi	sp,sp,32
80004634:	00008067          	ret

80004638 <run_timer_list>:

void run_timer_list()
{
80004638:	fe010113          	addi	sp,sp,-32
8000463c:	00112e23          	sw	ra,28(sp)
80004640:	00812c23          	sw	s0,24(sp)
80004644:	00912a23          	sw	s1,20(sp)
80004648:	02010413          	addi	s0,sp,32
    //printf("timer expired: %ld\n", timers->timeout_tick);
    //printf("current tick: %ld\n", get_mtime());
    while (timers != NULL && timers->timeout_tick <= get_mtime())
8000464c:	0440006f          	j	80004690 <run_timer_list+0x58>
    {
        timer *expired = timers;
80004650:	800067b7          	lui	a5,0x80006
80004654:	0607a783          	lw	a5,96(a5) # 80006060 <_memory_end+0xf8006060>
80004658:	fef42623          	sw	a5,-20(s0)
        timers = timers->next;
8000465c:	800067b7          	lui	a5,0x80006
80004660:	0607a783          	lw	a5,96(a5) # 80006060 <_memory_end+0xf8006060>
80004664:	00c7a703          	lw	a4,12(a5)
80004668:	800067b7          	lui	a5,0x80006
8000466c:	06e7a023          	sw	a4,96(a5) # 80006060 <_memory_end+0xf8006060>
        
        // 执行定时器回调
        expired->func(expired->arg);
80004670:	fec42783          	lw	a5,-20(s0)
80004674:	0007a703          	lw	a4,0(a5)
80004678:	fec42783          	lw	a5,-20(s0)
8000467c:	0047a783          	lw	a5,4(a5)
80004680:	00078513          	mv	a0,a5
80004684:	000700e7          	jalr	a4
        
        // 释放定时器
        free(expired);
80004688:	fec42503          	lw	a0,-20(s0)
8000468c:	c10ff0ef          	jal	ra,80003a9c <free>
    while (timers != NULL && timers->timeout_tick <= get_mtime())
80004690:	800067b7          	lui	a5,0x80006
80004694:	0607a783          	lw	a5,96(a5) # 80006060 <_memory_end+0xf8006060>
80004698:	00078e63          	beqz	a5,800046b4 <run_timer_list+0x7c>
8000469c:	800067b7          	lui	a5,0x80006
800046a0:	0607a783          	lw	a5,96(a5) # 80006060 <_memory_end+0xf8006060>
800046a4:	0087a483          	lw	s1,8(a5)
800046a8:	e5dff0ef          	jal	ra,80004504 <get_mtime>
800046ac:	00050793          	mv	a5,a0
800046b0:	fa97f0e3          	bgeu	a5,s1,80004650 <run_timer_list+0x18>
    }
    if (timers == NULL)
800046b4:	800067b7          	lui	a5,0x80006
800046b8:	0607a783          	lw	a5,96(a5) # 80006060 <_memory_end+0xf8006060>
800046bc:	02079063          	bnez	a5,800046dc <run_timer_list+0xa4>
    {
        timer_create(schedule, NULL, 1);
800046c0:	00100613          	li	a2,1
800046c4:	00000593          	li	a1,0
800046c8:	800027b7          	lui	a5,0x80002
800046cc:	41478513          	addi	a0,a5,1044 # 80002414 <_memory_end+0xf8002414>
800046d0:	e65ff0ef          	jal	ra,80004534 <timer_create>
        spin_unlock();
800046d4:	be5fe0ef          	jal	ra,800032b8 <spin_unlock>
        return;
800046d8:	0180006f          	j	800046f0 <run_timer_list+0xb8>
    }
    timer_load(timers->timeout_tick);
800046dc:	800067b7          	lui	a5,0x80006
800046e0:	0607a783          	lw	a5,96(a5) # 80006060 <_memory_end+0xf8006060>
800046e4:	0087a783          	lw	a5,8(a5)
800046e8:	00078513          	mv	a0,a5
800046ec:	d1dff0ef          	jal	ra,80004408 <timer_load>
}
800046f0:	01c12083          	lw	ra,28(sp)
800046f4:	01812403          	lw	s0,24(sp)
800046f8:	01412483          	lw	s1,20(sp)
800046fc:	02010113          	addi	sp,sp,32
80004700:	00008067          	ret

80004704 <timer_handler>:

void timer_handler()
{
80004704:	ff010113          	addi	sp,sp,-16
80004708:	00112623          	sw	ra,12(sp)
8000470c:	00812423          	sw	s0,8(sp)
80004710:	01010413          	addi	s0,sp,16
    spin_lock();
80004714:	b69fe0ef          	jal	ra,8000327c <spin_lock>
    //print_timers();
    // if (timers->func == timer_handler)
    // {
    //     timer_create(timer_handler, NULL, 1);
    // }
    run_timer_list();
80004718:	f21ff0ef          	jal	ra,80004638 <run_timer_list>
    spin_unlock();
8000471c:	b9dfe0ef          	jal	ra,800032b8 <spin_unlock>
    // check_timeslice();
}
80004720:	00000013          	nop
80004724:	00c12083          	lw	ra,12(sp)
80004728:	00812403          	lw	s0,8(sp)
8000472c:	01010113          	addi	sp,sp,16
80004730:	00008067          	ret

80004734 <print_timers>:

/* 打印定时器链表信息的调试函数 */
void print_timers(void)
{
80004734:	fe010113          	addi	sp,sp,-32
80004738:	00112e23          	sw	ra,28(sp)
8000473c:	00812c23          	sw	s0,24(sp)
80004740:	02010413          	addi	s0,sp,32
    printf("\n=== Timer List Debug Info ===\n");
80004744:	800067b7          	lui	a5,0x80006
80004748:	a4078513          	addi	a0,a5,-1472 # 80005a40 <_memory_end+0xf8005a40>
8000474c:	6bc000ef          	jal	ra,80004e08 <printf>
    printf("MTIMECMP:%d\n", get_mtimecmp());
80004750:	d2dff0ef          	jal	ra,8000447c <get_mtimecmp>
80004754:	00050793          	mv	a5,a0
80004758:	00078593          	mv	a1,a5
8000475c:	800067b7          	lui	a5,0x80006
80004760:	a6078513          	addi	a0,a5,-1440 # 80005a60 <_memory_end+0xf8005a60>
80004764:	6a4000ef          	jal	ra,80004e08 <printf>
    if (timers == NULL)
80004768:	800067b7          	lui	a5,0x80006
8000476c:	0607a783          	lw	a5,96(a5) # 80006060 <_memory_end+0xf8006060>
80004770:	00079a63          	bnez	a5,80004784 <print_timers+0x50>
    {
        printf("Timer list is empty\n");
80004774:	800067b7          	lui	a5,0x80006
80004778:	a7078513          	addi	a0,a5,-1424 # 80005a70 <_memory_end+0xf8005a70>
8000477c:	68c000ef          	jal	ra,80004e08 <printf>
        return;
80004780:	1440006f          	j	800048c4 <print_timers+0x190>
    }

    timer *current = timers;
80004784:	800067b7          	lui	a5,0x80006
80004788:	0607a783          	lw	a5,96(a5) # 80006060 <_memory_end+0xf8006060>
8000478c:	fef42623          	sw	a5,-20(s0)
    int count = 0;
80004790:	fe042423          	sw	zero,-24(s0)

    while (current != NULL)
80004794:	11c0006f          	j	800048b0 <print_timers+0x17c>
    {
        printf("Timer[%d]:\n", count++);
80004798:	fe842783          	lw	a5,-24(s0)
8000479c:	00178713          	addi	a4,a5,1
800047a0:	fee42423          	sw	a4,-24(s0)
800047a4:	00078593          	mv	a1,a5
800047a8:	800067b7          	lui	a5,0x80006
800047ac:	a8878513          	addi	a0,a5,-1400 # 80005a88 <_memory_end+0xf8005a88>
800047b0:	658000ef          	jal	ra,80004e08 <printf>
        printf("  timeout_tick: %d\n", current->timeout_tick);
800047b4:	fec42783          	lw	a5,-20(s0)
800047b8:	0087a783          	lw	a5,8(a5)
800047bc:	00078593          	mv	a1,a5
800047c0:	800067b7          	lui	a5,0x80006
800047c4:	a9478513          	addi	a0,a5,-1388 # 80005a94 <_memory_end+0xf8005a94>
800047c8:	640000ef          	jal	ra,80004e08 <printf>
        const char *func_name = "unknown";
800047cc:	800067b7          	lui	a5,0x80006
800047d0:	aa878793          	addi	a5,a5,-1368 # 80005aa8 <_memory_end+0xf8005aa8>
800047d4:	fef42223          	sw	a5,-28(s0)
        if (current->func == timer_handler)
800047d8:	fec42783          	lw	a5,-20(s0)
800047dc:	0007a703          	lw	a4,0(a5)
800047e0:	800047b7          	lui	a5,0x80004
800047e4:	70478793          	addi	a5,a5,1796 # 80004704 <_memory_end+0xf8004704>
800047e8:	00f71a63          	bne	a4,a5,800047fc <print_timers+0xc8>
        {
            func_name = "timer_handler";
800047ec:	800067b7          	lui	a5,0x80006
800047f0:	ab078793          	addi	a5,a5,-1360 # 80005ab0 <_memory_end+0xf8005ab0>
800047f4:	fef42223          	sw	a5,-28(s0)
800047f8:	06c0006f          	j	80004864 <print_timers+0x130>
        }
        else if (current->func == task_yield)
800047fc:	fec42783          	lw	a5,-20(s0)
80004800:	0007a703          	lw	a4,0(a5)
80004804:	800037b7          	lui	a5,0x80003
80004808:	9b478793          	addi	a5,a5,-1612 # 800029b4 <_memory_end+0xf80029b4>
8000480c:	00f71a63          	bne	a4,a5,80004820 <print_timers+0xec>
        {
            func_name = "task_yield";
80004810:	800067b7          	lui	a5,0x80006
80004814:	ac078793          	addi	a5,a5,-1344 # 80005ac0 <_memory_end+0xf8005ac0>
80004818:	fef42223          	sw	a5,-28(s0)
8000481c:	0480006f          	j	80004864 <print_timers+0x130>
        }
        else if (current->func == wake_up_task)
80004820:	fec42783          	lw	a5,-20(s0)
80004824:	0007a703          	lw	a4,0(a5)
80004828:	800037b7          	lui	a5,0x80003
8000482c:	b0478793          	addi	a5,a5,-1276 # 80002b04 <_memory_end+0xf8002b04>
80004830:	00f71a63          	bne	a4,a5,80004844 <print_timers+0x110>
        {
            func_name = "wake_up_task";
80004834:	800067b7          	lui	a5,0x80006
80004838:	acc78793          	addi	a5,a5,-1332 # 80005acc <_memory_end+0xf8005acc>
8000483c:	fef42223          	sw	a5,-28(s0)
80004840:	0240006f          	j	80004864 <print_timers+0x130>
        }
        else if (current->func == schedule)
80004844:	fec42783          	lw	a5,-20(s0)
80004848:	0007a703          	lw	a4,0(a5)
8000484c:	800027b7          	lui	a5,0x80002
80004850:	41478793          	addi	a5,a5,1044 # 80002414 <_memory_end+0xf8002414>
80004854:	00f71863          	bne	a4,a5,80004864 <print_timers+0x130>
        {
            func_name = "schedule";
80004858:	800067b7          	lui	a5,0x80006
8000485c:	adc78793          	addi	a5,a5,-1316 # 80005adc <_memory_end+0xf8005adc>
80004860:	fef42223          	sw	a5,-28(s0)
        }

        // ... 添加其他你需要识别的函数

        printf("  func name: %s\n", func_name);
80004864:	fe442583          	lw	a1,-28(s0)
80004868:	800067b7          	lui	a5,0x80006
8000486c:	ae878513          	addi	a0,a5,-1304 # 80005ae8 <_memory_end+0xf8005ae8>
80004870:	598000ef          	jal	ra,80004e08 <printf>
        printf("  arg: %p\n", current->arg);
80004874:	fec42783          	lw	a5,-20(s0)
80004878:	0047a783          	lw	a5,4(a5)
8000487c:	00078593          	mv	a1,a5
80004880:	800067b7          	lui	a5,0x80006
80004884:	afc78513          	addi	a0,a5,-1284 # 80005afc <_memory_end+0xf8005afc>
80004888:	580000ef          	jal	ra,80004e08 <printf>
        printf("  next: %p\n", (void *)current->next);
8000488c:	fec42783          	lw	a5,-20(s0)
80004890:	00c7a783          	lw	a5,12(a5)
80004894:	00078593          	mv	a1,a5
80004898:	800067b7          	lui	a5,0x80006
8000489c:	b0878513          	addi	a0,a5,-1272 # 80005b08 <_memory_end+0xf8005b08>
800048a0:	568000ef          	jal	ra,80004e08 <printf>

        current = current->next;
800048a4:	fec42783          	lw	a5,-20(s0)
800048a8:	00c7a783          	lw	a5,12(a5)
800048ac:	fef42623          	sw	a5,-20(s0)
    while (current != NULL)
800048b0:	fec42783          	lw	a5,-20(s0)
800048b4:	ee0792e3          	bnez	a5,80004798 <print_timers+0x64>
    }
    printf("=== End of Timer List ===\n\n");
800048b8:	800067b7          	lui	a5,0x80006
800048bc:	b1478513          	addi	a0,a5,-1260 # 80005b14 <_memory_end+0xf8005b14>
800048c0:	548000ef          	jal	ra,80004e08 <printf>
800048c4:	01c12083          	lw	ra,28(sp)
800048c8:	01812403          	lw	s0,24(sp)
800048cc:	02010113          	addi	sp,sp,32
800048d0:	00008067          	ret

800048d4 <_vsnprintf>:
/*
 * ref: https://github.com/cccriscv/mini-riscv-os/blob/master/05-Preemptive/lib.c
 */

int _vsnprintf(char * out, size_t n, const char* s, va_list vl)
{
800048d4:	fb010113          	addi	sp,sp,-80
800048d8:	04812623          	sw	s0,76(sp)
800048dc:	05010413          	addi	s0,sp,80
800048e0:	faa42e23          	sw	a0,-68(s0)
800048e4:	fab42c23          	sw	a1,-72(s0)
800048e8:	fac42a23          	sw	a2,-76(s0)
800048ec:	fad42823          	sw	a3,-80(s0)
	int format = 0;
800048f0:	fe042623          	sw	zero,-20(s0)
	int longarg = 0;
800048f4:	fe042423          	sw	zero,-24(s0)
	size_t pos = 0;
800048f8:	fe042223          	sw	zero,-28(s0)
	for (; *s; s++) {
800048fc:	4080006f          	j	80004d04 <_vsnprintf+0x430>
		if (format) {
80004900:	fec42783          	lw	a5,-20(s0)
80004904:	38078c63          	beqz	a5,80004c9c <_vsnprintf+0x3c8>
			switch(*s) {
80004908:	fb442783          	lw	a5,-76(s0)
8000490c:	0007c783          	lbu	a5,0(a5)
80004910:	f9d78793          	addi	a5,a5,-99
80004914:	01500713          	li	a4,21
80004918:	3cf76e63          	bltu	a4,a5,80004cf4 <_vsnprintf+0x420>
8000491c:	00279713          	slli	a4,a5,0x2
80004920:	800067b7          	lui	a5,0x80006
80004924:	b3078793          	addi	a5,a5,-1232 # 80005b30 <_memory_end+0xf8005b30>
80004928:	00f707b3          	add	a5,a4,a5
8000492c:	0007a783          	lw	a5,0(a5)
80004930:	00078067          	jr	a5
			case 'l': {
				longarg = 1;
80004934:	00100793          	li	a5,1
80004938:	fef42423          	sw	a5,-24(s0)
				break;
8000493c:	3bc0006f          	j	80004cf8 <_vsnprintf+0x424>
			}
			case 'p': {
				longarg = 1;
80004940:	00100793          	li	a5,1
80004944:	fef42423          	sw	a5,-24(s0)
				if (out && pos < n) {
80004948:	fbc42783          	lw	a5,-68(s0)
8000494c:	02078263          	beqz	a5,80004970 <_vsnprintf+0x9c>
80004950:	fe442703          	lw	a4,-28(s0)
80004954:	fb842783          	lw	a5,-72(s0)
80004958:	00f77c63          	bgeu	a4,a5,80004970 <_vsnprintf+0x9c>
					out[pos] = '0';
8000495c:	fbc42703          	lw	a4,-68(s0)
80004960:	fe442783          	lw	a5,-28(s0)
80004964:	00f707b3          	add	a5,a4,a5
80004968:	03000713          	li	a4,48
8000496c:	00e78023          	sb	a4,0(a5)
				}
				pos++;
80004970:	fe442783          	lw	a5,-28(s0)
80004974:	00178793          	addi	a5,a5,1
80004978:	fef42223          	sw	a5,-28(s0)
				if (out && pos < n) {
8000497c:	fbc42783          	lw	a5,-68(s0)
80004980:	02078263          	beqz	a5,800049a4 <_vsnprintf+0xd0>
80004984:	fe442703          	lw	a4,-28(s0)
80004988:	fb842783          	lw	a5,-72(s0)
8000498c:	00f77c63          	bgeu	a4,a5,800049a4 <_vsnprintf+0xd0>
					out[pos] = 'x';
80004990:	fbc42703          	lw	a4,-68(s0)
80004994:	fe442783          	lw	a5,-28(s0)
80004998:	00f707b3          	add	a5,a4,a5
8000499c:	07800713          	li	a4,120
800049a0:	00e78023          	sb	a4,0(a5)
				}
				pos++;
800049a4:	fe442783          	lw	a5,-28(s0)
800049a8:	00178793          	addi	a5,a5,1
800049ac:	fef42223          	sw	a5,-28(s0)
			}
			case 'x': {
				long num = longarg ? va_arg(vl, long) : va_arg(vl, int);
800049b0:	fe842783          	lw	a5,-24(s0)
800049b4:	00078c63          	beqz	a5,800049cc <_vsnprintf+0xf8>
800049b8:	fb042783          	lw	a5,-80(s0)
800049bc:	00478713          	addi	a4,a5,4
800049c0:	fae42823          	sw	a4,-80(s0)
800049c4:	0007a783          	lw	a5,0(a5)
800049c8:	0140006f          	j	800049dc <_vsnprintf+0x108>
800049cc:	fb042783          	lw	a5,-80(s0)
800049d0:	00478713          	addi	a4,a5,4
800049d4:	fae42823          	sw	a4,-80(s0)
800049d8:	0007a783          	lw	a5,0(a5)
800049dc:	fcf42423          	sw	a5,-56(s0)
				int hexdigits = 2*(longarg ? sizeof(long) : sizeof(int))-1;
800049e0:	00700793          	li	a5,7
800049e4:	fcf42223          	sw	a5,-60(s0)
				for(int i = hexdigits; i >= 0; i--) {
800049e8:	fc442783          	lw	a5,-60(s0)
800049ec:	fef42023          	sw	a5,-32(s0)
800049f0:	0880006f          	j	80004a78 <_vsnprintf+0x1a4>
					int d = (num >> (4*i)) & 0xF;
800049f4:	fe042783          	lw	a5,-32(s0)
800049f8:	00279793          	slli	a5,a5,0x2
800049fc:	fc842703          	lw	a4,-56(s0)
80004a00:	40f757b3          	sra	a5,a4,a5
80004a04:	00f7f793          	andi	a5,a5,15
80004a08:	fcf42023          	sw	a5,-64(s0)
					if (out && pos < n) {
80004a0c:	fbc42783          	lw	a5,-68(s0)
80004a10:	04078863          	beqz	a5,80004a60 <_vsnprintf+0x18c>
80004a14:	fe442703          	lw	a4,-28(s0)
80004a18:	fb842783          	lw	a5,-72(s0)
80004a1c:	04f77263          	bgeu	a4,a5,80004a60 <_vsnprintf+0x18c>
						out[pos] = (d < 10 ? '0'+d : 'a'+d-10);
80004a20:	fc042703          	lw	a4,-64(s0)
80004a24:	00900793          	li	a5,9
80004a28:	00e7cc63          	blt	a5,a4,80004a40 <_vsnprintf+0x16c>
80004a2c:	fc042783          	lw	a5,-64(s0)
80004a30:	0ff7f793          	andi	a5,a5,255
80004a34:	03078793          	addi	a5,a5,48
80004a38:	0ff7f793          	andi	a5,a5,255
80004a3c:	0140006f          	j	80004a50 <_vsnprintf+0x17c>
80004a40:	fc042783          	lw	a5,-64(s0)
80004a44:	0ff7f793          	andi	a5,a5,255
80004a48:	05778793          	addi	a5,a5,87
80004a4c:	0ff7f793          	andi	a5,a5,255
80004a50:	fbc42683          	lw	a3,-68(s0)
80004a54:	fe442703          	lw	a4,-28(s0)
80004a58:	00e68733          	add	a4,a3,a4
80004a5c:	00f70023          	sb	a5,0(a4)
					}
					pos++;
80004a60:	fe442783          	lw	a5,-28(s0)
80004a64:	00178793          	addi	a5,a5,1
80004a68:	fef42223          	sw	a5,-28(s0)
				for(int i = hexdigits; i >= 0; i--) {
80004a6c:	fe042783          	lw	a5,-32(s0)
80004a70:	fff78793          	addi	a5,a5,-1
80004a74:	fef42023          	sw	a5,-32(s0)
80004a78:	fe042783          	lw	a5,-32(s0)
80004a7c:	f607dce3          	bgez	a5,800049f4 <_vsnprintf+0x120>
				}
				longarg = 0;
80004a80:	fe042423          	sw	zero,-24(s0)
				format = 0;
80004a84:	fe042623          	sw	zero,-20(s0)
				break;
80004a88:	2700006f          	j	80004cf8 <_vsnprintf+0x424>
			}
			case 'd': {
				long num = longarg ? va_arg(vl, long) : va_arg(vl, int);
80004a8c:	fe842783          	lw	a5,-24(s0)
80004a90:	00078c63          	beqz	a5,80004aa8 <_vsnprintf+0x1d4>
80004a94:	fb042783          	lw	a5,-80(s0)
80004a98:	00478713          	addi	a4,a5,4
80004a9c:	fae42823          	sw	a4,-80(s0)
80004aa0:	0007a783          	lw	a5,0(a5)
80004aa4:	0140006f          	j	80004ab8 <_vsnprintf+0x1e4>
80004aa8:	fb042783          	lw	a5,-80(s0)
80004aac:	00478713          	addi	a4,a5,4
80004ab0:	fae42823          	sw	a4,-80(s0)
80004ab4:	0007a783          	lw	a5,0(a5)
80004ab8:	fcf42e23          	sw	a5,-36(s0)
				if (num < 0) {
80004abc:	fdc42783          	lw	a5,-36(s0)
80004ac0:	0407d263          	bgez	a5,80004b04 <_vsnprintf+0x230>
					num = -num;
80004ac4:	fdc42783          	lw	a5,-36(s0)
80004ac8:	40f007b3          	neg	a5,a5
80004acc:	fcf42e23          	sw	a5,-36(s0)
					if (out && pos < n) {
80004ad0:	fbc42783          	lw	a5,-68(s0)
80004ad4:	02078263          	beqz	a5,80004af8 <_vsnprintf+0x224>
80004ad8:	fe442703          	lw	a4,-28(s0)
80004adc:	fb842783          	lw	a5,-72(s0)
80004ae0:	00f77c63          	bgeu	a4,a5,80004af8 <_vsnprintf+0x224>
						out[pos] = '-';
80004ae4:	fbc42703          	lw	a4,-68(s0)
80004ae8:	fe442783          	lw	a5,-28(s0)
80004aec:	00f707b3          	add	a5,a4,a5
80004af0:	02d00713          	li	a4,45
80004af4:	00e78023          	sb	a4,0(a5)
					}
					pos++;
80004af8:	fe442783          	lw	a5,-28(s0)
80004afc:	00178793          	addi	a5,a5,1
80004b00:	fef42223          	sw	a5,-28(s0)
				}
				long digits = 1;
80004b04:	00100793          	li	a5,1
80004b08:	fcf42c23          	sw	a5,-40(s0)
				for (long nn = num; nn /= 10; digits++);
80004b0c:	fdc42783          	lw	a5,-36(s0)
80004b10:	fcf42a23          	sw	a5,-44(s0)
80004b14:	0100006f          	j	80004b24 <_vsnprintf+0x250>
80004b18:	fd842783          	lw	a5,-40(s0)
80004b1c:	00178793          	addi	a5,a5,1
80004b20:	fcf42c23          	sw	a5,-40(s0)
80004b24:	fd442703          	lw	a4,-44(s0)
80004b28:	00a00793          	li	a5,10
80004b2c:	02f747b3          	div	a5,a4,a5
80004b30:	fcf42a23          	sw	a5,-44(s0)
80004b34:	fd442783          	lw	a5,-44(s0)
80004b38:	fe0790e3          	bnez	a5,80004b18 <_vsnprintf+0x244>
				for (int i = digits-1; i >= 0; i--) {
80004b3c:	fd842783          	lw	a5,-40(s0)
80004b40:	fff78793          	addi	a5,a5,-1
80004b44:	fcf42823          	sw	a5,-48(s0)
80004b48:	06c0006f          	j	80004bb4 <_vsnprintf+0x2e0>
					if (out && pos + i < n) {
80004b4c:	fbc42783          	lw	a5,-68(s0)
80004b50:	04078463          	beqz	a5,80004b98 <_vsnprintf+0x2c4>
80004b54:	fd042703          	lw	a4,-48(s0)
80004b58:	fe442783          	lw	a5,-28(s0)
80004b5c:	00f707b3          	add	a5,a4,a5
80004b60:	fb842703          	lw	a4,-72(s0)
80004b64:	02e7fa63          	bgeu	a5,a4,80004b98 <_vsnprintf+0x2c4>
						out[pos + i] = '0' + (num % 10);
80004b68:	fdc42703          	lw	a4,-36(s0)
80004b6c:	00a00793          	li	a5,10
80004b70:	02f767b3          	rem	a5,a4,a5
80004b74:	0ff7f713          	andi	a4,a5,255
80004b78:	fd042683          	lw	a3,-48(s0)
80004b7c:	fe442783          	lw	a5,-28(s0)
80004b80:	00f687b3          	add	a5,a3,a5
80004b84:	fbc42683          	lw	a3,-68(s0)
80004b88:	00f687b3          	add	a5,a3,a5
80004b8c:	03070713          	addi	a4,a4,48
80004b90:	0ff77713          	andi	a4,a4,255
80004b94:	00e78023          	sb	a4,0(a5)
					}
					num /= 10;
80004b98:	fdc42703          	lw	a4,-36(s0)
80004b9c:	00a00793          	li	a5,10
80004ba0:	02f747b3          	div	a5,a4,a5
80004ba4:	fcf42e23          	sw	a5,-36(s0)
				for (int i = digits-1; i >= 0; i--) {
80004ba8:	fd042783          	lw	a5,-48(s0)
80004bac:	fff78793          	addi	a5,a5,-1
80004bb0:	fcf42823          	sw	a5,-48(s0)
80004bb4:	fd042783          	lw	a5,-48(s0)
80004bb8:	f807dae3          	bgez	a5,80004b4c <_vsnprintf+0x278>
				}
				pos += digits;
80004bbc:	fd842783          	lw	a5,-40(s0)
80004bc0:	fe442703          	lw	a4,-28(s0)
80004bc4:	00f707b3          	add	a5,a4,a5
80004bc8:	fef42223          	sw	a5,-28(s0)
				longarg = 0;
80004bcc:	fe042423          	sw	zero,-24(s0)
				format = 0;
80004bd0:	fe042623          	sw	zero,-20(s0)
				break;
80004bd4:	1240006f          	j	80004cf8 <_vsnprintf+0x424>
			}
			case 's': {
				const char* s2 = va_arg(vl, const char*);
80004bd8:	fb042783          	lw	a5,-80(s0)
80004bdc:	00478713          	addi	a4,a5,4
80004be0:	fae42823          	sw	a4,-80(s0)
80004be4:	0007a783          	lw	a5,0(a5)
80004be8:	fcf42623          	sw	a5,-52(s0)
				while (*s2) {
80004bec:	0480006f          	j	80004c34 <_vsnprintf+0x360>
					if (out && pos < n) {
80004bf0:	fbc42783          	lw	a5,-68(s0)
80004bf4:	02078463          	beqz	a5,80004c1c <_vsnprintf+0x348>
80004bf8:	fe442703          	lw	a4,-28(s0)
80004bfc:	fb842783          	lw	a5,-72(s0)
80004c00:	00f77e63          	bgeu	a4,a5,80004c1c <_vsnprintf+0x348>
						out[pos] = *s2;
80004c04:	fbc42703          	lw	a4,-68(s0)
80004c08:	fe442783          	lw	a5,-28(s0)
80004c0c:	00f707b3          	add	a5,a4,a5
80004c10:	fcc42703          	lw	a4,-52(s0)
80004c14:	00074703          	lbu	a4,0(a4)
80004c18:	00e78023          	sb	a4,0(a5)
					}
					pos++;
80004c1c:	fe442783          	lw	a5,-28(s0)
80004c20:	00178793          	addi	a5,a5,1
80004c24:	fef42223          	sw	a5,-28(s0)
					s2++;
80004c28:	fcc42783          	lw	a5,-52(s0)
80004c2c:	00178793          	addi	a5,a5,1
80004c30:	fcf42623          	sw	a5,-52(s0)
				while (*s2) {
80004c34:	fcc42783          	lw	a5,-52(s0)
80004c38:	0007c783          	lbu	a5,0(a5)
80004c3c:	fa079ae3          	bnez	a5,80004bf0 <_vsnprintf+0x31c>
				}
				longarg = 0;
80004c40:	fe042423          	sw	zero,-24(s0)
				format = 0;
80004c44:	fe042623          	sw	zero,-20(s0)
				break;
80004c48:	0b00006f          	j	80004cf8 <_vsnprintf+0x424>
			}
			case 'c': {
				if (out && pos < n) {
80004c4c:	fbc42783          	lw	a5,-68(s0)
80004c50:	02078a63          	beqz	a5,80004c84 <_vsnprintf+0x3b0>
80004c54:	fe442703          	lw	a4,-28(s0)
80004c58:	fb842783          	lw	a5,-72(s0)
80004c5c:	02f77463          	bgeu	a4,a5,80004c84 <_vsnprintf+0x3b0>
					out[pos] = (char)va_arg(vl,int);
80004c60:	fb042783          	lw	a5,-80(s0)
80004c64:	00478713          	addi	a4,a5,4
80004c68:	fae42823          	sw	a4,-80(s0)
80004c6c:	0007a683          	lw	a3,0(a5)
80004c70:	fbc42703          	lw	a4,-68(s0)
80004c74:	fe442783          	lw	a5,-28(s0)
80004c78:	00f707b3          	add	a5,a4,a5
80004c7c:	0ff6f713          	andi	a4,a3,255
80004c80:	00e78023          	sb	a4,0(a5)
				}
				pos++;
80004c84:	fe442783          	lw	a5,-28(s0)
80004c88:	00178793          	addi	a5,a5,1
80004c8c:	fef42223          	sw	a5,-28(s0)
				longarg = 0;
80004c90:	fe042423          	sw	zero,-24(s0)
				format = 0;
80004c94:	fe042623          	sw	zero,-20(s0)
				break;
80004c98:	0600006f          	j	80004cf8 <_vsnprintf+0x424>
			}
			default:
				break;
			}
		} else if (*s == '%') {
80004c9c:	fb442783          	lw	a5,-76(s0)
80004ca0:	0007c703          	lbu	a4,0(a5)
80004ca4:	02500793          	li	a5,37
80004ca8:	00f71863          	bne	a4,a5,80004cb8 <_vsnprintf+0x3e4>
			format = 1;
80004cac:	00100793          	li	a5,1
80004cb0:	fef42623          	sw	a5,-20(s0)
80004cb4:	0440006f          	j	80004cf8 <_vsnprintf+0x424>
		} else {
			if (out && pos < n) {
80004cb8:	fbc42783          	lw	a5,-68(s0)
80004cbc:	02078463          	beqz	a5,80004ce4 <_vsnprintf+0x410>
80004cc0:	fe442703          	lw	a4,-28(s0)
80004cc4:	fb842783          	lw	a5,-72(s0)
80004cc8:	00f77e63          	bgeu	a4,a5,80004ce4 <_vsnprintf+0x410>
				out[pos] = *s;
80004ccc:	fbc42703          	lw	a4,-68(s0)
80004cd0:	fe442783          	lw	a5,-28(s0)
80004cd4:	00f707b3          	add	a5,a4,a5
80004cd8:	fb442703          	lw	a4,-76(s0)
80004cdc:	00074703          	lbu	a4,0(a4)
80004ce0:	00e78023          	sb	a4,0(a5)
			}
			pos++;
80004ce4:	fe442783          	lw	a5,-28(s0)
80004ce8:	00178793          	addi	a5,a5,1
80004cec:	fef42223          	sw	a5,-28(s0)
80004cf0:	0080006f          	j	80004cf8 <_vsnprintf+0x424>
				break;
80004cf4:	00000013          	nop
	for (; *s; s++) {
80004cf8:	fb442783          	lw	a5,-76(s0)
80004cfc:	00178793          	addi	a5,a5,1
80004d00:	faf42a23          	sw	a5,-76(s0)
80004d04:	fb442783          	lw	a5,-76(s0)
80004d08:	0007c783          	lbu	a5,0(a5)
80004d0c:	be079ae3          	bnez	a5,80004900 <_vsnprintf+0x2c>
		}
    	}
	if (out && pos < n) {
80004d10:	fbc42783          	lw	a5,-68(s0)
80004d14:	02078263          	beqz	a5,80004d38 <_vsnprintf+0x464>
80004d18:	fe442703          	lw	a4,-28(s0)
80004d1c:	fb842783          	lw	a5,-72(s0)
80004d20:	00f77c63          	bgeu	a4,a5,80004d38 <_vsnprintf+0x464>
		out[pos] = 0;
80004d24:	fbc42703          	lw	a4,-68(s0)
80004d28:	fe442783          	lw	a5,-28(s0)
80004d2c:	00f707b3          	add	a5,a4,a5
80004d30:	00078023          	sb	zero,0(a5)
80004d34:	0280006f          	j	80004d5c <_vsnprintf+0x488>
	} else if (out && n) {
80004d38:	fbc42783          	lw	a5,-68(s0)
80004d3c:	02078063          	beqz	a5,80004d5c <_vsnprintf+0x488>
80004d40:	fb842783          	lw	a5,-72(s0)
80004d44:	00078c63          	beqz	a5,80004d5c <_vsnprintf+0x488>
		out[n-1] = 0;
80004d48:	fb842783          	lw	a5,-72(s0)
80004d4c:	fff78793          	addi	a5,a5,-1
80004d50:	fbc42703          	lw	a4,-68(s0)
80004d54:	00f707b3          	add	a5,a4,a5
80004d58:	00078023          	sb	zero,0(a5)
	}
	return pos;
80004d5c:	fe442783          	lw	a5,-28(s0)
}
80004d60:	00078513          	mv	a0,a5
80004d64:	04c12403          	lw	s0,76(sp)
80004d68:	05010113          	addi	sp,sp,80
80004d6c:	00008067          	ret

80004d70 <_vprintf>:

static char out_buf[1000]; // buffer for _vprintf()

int _vprintf(const char* s, va_list vl)
{
80004d70:	fd010113          	addi	sp,sp,-48
80004d74:	02112623          	sw	ra,44(sp)
80004d78:	02812423          	sw	s0,40(sp)
80004d7c:	03010413          	addi	s0,sp,48
80004d80:	fca42e23          	sw	a0,-36(s0)
80004d84:	fcb42c23          	sw	a1,-40(s0)
	int res = _vsnprintf(NULL, -1, s, vl);
80004d88:	fd842683          	lw	a3,-40(s0)
80004d8c:	fdc42603          	lw	a2,-36(s0)
80004d90:	fff00593          	li	a1,-1
80004d94:	00000513          	li	a0,0
80004d98:	b3dff0ef          	jal	ra,800048d4 <_vsnprintf>
80004d9c:	fea42623          	sw	a0,-20(s0)
	if (res+1 >= sizeof(out_buf)) {
80004da0:	fec42783          	lw	a5,-20(s0)
80004da4:	00178793          	addi	a5,a5,1
80004da8:	00078713          	mv	a4,a5
80004dac:	3e700793          	li	a5,999
80004db0:	00e7fa63          	bgeu	a5,a4,80004dc4 <_vprintf+0x54>
		uart_puts("error: output string size overflow\n");
80004db4:	800067b7          	lui	a5,0x80006
80004db8:	b8878513          	addi	a0,a5,-1144 # 80005b88 <_memory_end+0xf8005b88>
80004dbc:	accff0ef          	jal	ra,80004088 <uart_puts>
		while(1) {}
80004dc0:	0000006f          	j	80004dc0 <_vprintf+0x50>
	}
	_vsnprintf(out_buf, res + 1, s, vl);
80004dc4:	fec42783          	lw	a5,-20(s0)
80004dc8:	00178793          	addi	a5,a5,1
80004dcc:	fd842683          	lw	a3,-40(s0)
80004dd0:	fdc42603          	lw	a2,-36(s0)
80004dd4:	00078593          	mv	a1,a5
80004dd8:	80c067b7          	lui	a5,0x80c06
80004ddc:	72078513          	addi	a0,a5,1824 # 80c06720 <_memory_end+0xf8c06720>
80004de0:	af5ff0ef          	jal	ra,800048d4 <_vsnprintf>
	uart_puts(out_buf);
80004de4:	80c067b7          	lui	a5,0x80c06
80004de8:	72078513          	addi	a0,a5,1824 # 80c06720 <_memory_end+0xf8c06720>
80004dec:	a9cff0ef          	jal	ra,80004088 <uart_puts>
	return res;
80004df0:	fec42783          	lw	a5,-20(s0)
}
80004df4:	00078513          	mv	a0,a5
80004df8:	02c12083          	lw	ra,44(sp)
80004dfc:	02812403          	lw	s0,40(sp)
80004e00:	03010113          	addi	sp,sp,48
80004e04:	00008067          	ret

80004e08 <printf>:

int printf(const char* s, ...)
{
80004e08:	fb010113          	addi	sp,sp,-80
80004e0c:	02112623          	sw	ra,44(sp)
80004e10:	02812423          	sw	s0,40(sp)
80004e14:	03010413          	addi	s0,sp,48
80004e18:	fca42e23          	sw	a0,-36(s0)
80004e1c:	00b42223          	sw	a1,4(s0)
80004e20:	00c42423          	sw	a2,8(s0)
80004e24:	00d42623          	sw	a3,12(s0)
80004e28:	00e42823          	sw	a4,16(s0)
80004e2c:	00f42a23          	sw	a5,20(s0)
80004e30:	01042c23          	sw	a6,24(s0)
80004e34:	01142e23          	sw	a7,28(s0)
	int res = 0;
80004e38:	fe042623          	sw	zero,-20(s0)
	va_list vl;
	va_start(vl, s);
80004e3c:	02040793          	addi	a5,s0,32
80004e40:	fcf42c23          	sw	a5,-40(s0)
80004e44:	fd842783          	lw	a5,-40(s0)
80004e48:	fe478793          	addi	a5,a5,-28
80004e4c:	fef42423          	sw	a5,-24(s0)
	res = _vprintf(s, vl);
80004e50:	fe842783          	lw	a5,-24(s0)
80004e54:	00078593          	mv	a1,a5
80004e58:	fdc42503          	lw	a0,-36(s0)
80004e5c:	f15ff0ef          	jal	ra,80004d70 <_vprintf>
80004e60:	fea42623          	sw	a0,-20(s0)
	va_end(vl);
	return res;
80004e64:	fec42783          	lw	a5,-20(s0)
}
80004e68:	00078513          	mv	a0,a5
80004e6c:	02c12083          	lw	ra,44(sp)
80004e70:	02812403          	lw	s0,40(sp)
80004e74:	05010113          	addi	sp,sp,80
80004e78:	00008067          	ret

80004e7c <panic>:

void panic(char *s)
{
80004e7c:	fe010113          	addi	sp,sp,-32
80004e80:	00112e23          	sw	ra,28(sp)
80004e84:	00812c23          	sw	s0,24(sp)
80004e88:	02010413          	addi	s0,sp,32
80004e8c:	fea42623          	sw	a0,-20(s0)
	printf("panic: ");
80004e90:	800067b7          	lui	a5,0x80006
80004e94:	bac78513          	addi	a0,a5,-1108 # 80005bac <_memory_end+0xf8005bac>
80004e98:	f71ff0ef          	jal	ra,80004e08 <printf>
	printf(s);
80004e9c:	fec42503          	lw	a0,-20(s0)
80004ea0:	f69ff0ef          	jal	ra,80004e08 <printf>
	printf("\n");
80004ea4:	800067b7          	lui	a5,0x80006
80004ea8:	bb478513          	addi	a0,a5,-1100 # 80005bb4 <_memory_end+0xf8005bb4>
80004eac:	f5dff0ef          	jal	ra,80004e08 <printf>
	while(1){};
80004eb0:	0000006f          	j	80004eb0 <panic+0x34>

80004eb4 <_vsprintf>:
}

// 将 _vsnprintf 包装为更容易使用的函数
int _vsprintf(char *out, const char *fmt, va_list vl)
{
80004eb4:	fe010113          	addi	sp,sp,-32
80004eb8:	00112e23          	sw	ra,28(sp)
80004ebc:	00812c23          	sw	s0,24(sp)
80004ec0:	02010413          	addi	s0,sp,32
80004ec4:	fea42623          	sw	a0,-20(s0)
80004ec8:	feb42423          	sw	a1,-24(s0)
80004ecc:	fec42223          	sw	a2,-28(s0)
    return _vsnprintf(out, 256, fmt, vl);  // 假设最大 256 字节输出
80004ed0:	fe442683          	lw	a3,-28(s0)
80004ed4:	fe842603          	lw	a2,-24(s0)
80004ed8:	10000593          	li	a1,256
80004edc:	fec42503          	lw	a0,-20(s0)
80004ee0:	9f5ff0ef          	jal	ra,800048d4 <_vsnprintf>
80004ee4:	00050793          	mv	a5,a0
}
80004ee8:	00078513          	mv	a0,a5
80004eec:	01c12083          	lw	ra,28(sp)
80004ef0:	01812403          	lw	s0,24(sp)
80004ef4:	02010113          	addi	sp,sp,32
80004ef8:	00008067          	ret

80004efc <insert_to_timer_list>:
#include "os.h"
timer *insert_to_timer_list(timer *timer_head, timer *_timer)
{
80004efc:	fd010113          	addi	sp,sp,-48
80004f00:	02112623          	sw	ra,44(sp)
80004f04:	02812423          	sw	s0,40(sp)
80004f08:	03010413          	addi	s0,sp,48
80004f0c:	fca42e23          	sw	a0,-36(s0)
80004f10:	fcb42c23          	sw	a1,-40(s0)
    if (timer_head == NULL)
80004f14:	fdc42783          	lw	a5,-36(s0)
80004f18:	02079463          	bnez	a5,80004f40 <insert_to_timer_list+0x44>
    {
        next_timer = _timer;
80004f1c:	800067b7          	lui	a5,0x80006
80004f20:	fd842703          	lw	a4,-40(s0)
80004f24:	06e7a223          	sw	a4,100(a5) # 80006064 <_memory_end+0xf8006064>
        timer_load(_timer->timeout_tick);
80004f28:	fd842783          	lw	a5,-40(s0)
80004f2c:	0087a783          	lw	a5,8(a5)
80004f30:	00078513          	mv	a0,a5
80004f34:	cd4ff0ef          	jal	ra,80004408 <timer_load>
        return _timer;
80004f38:	fd842783          	lw	a5,-40(s0)
80004f3c:	1400006f          	j	8000507c <insert_to_timer_list+0x180>
    }
    if (timer_head->timeout_tick > _timer->timeout_tick)
80004f40:	fdc42783          	lw	a5,-36(s0)
80004f44:	0087a703          	lw	a4,8(a5)
80004f48:	fd842783          	lw	a5,-40(s0)
80004f4c:	0087a783          	lw	a5,8(a5)
80004f50:	02e7fa63          	bgeu	a5,a4,80004f84 <insert_to_timer_list+0x88>
    {
        _timer->next = timer_head;
80004f54:	fd842783          	lw	a5,-40(s0)
80004f58:	fdc42703          	lw	a4,-36(s0)
80004f5c:	00e7a623          	sw	a4,12(a5)
        next_timer = _timer;
80004f60:	800067b7          	lui	a5,0x80006
80004f64:	fd842703          	lw	a4,-40(s0)
80004f68:	06e7a223          	sw	a4,100(a5) # 80006064 <_memory_end+0xf8006064>
        timer_load(_timer->timeout_tick);
80004f6c:	fd842783          	lw	a5,-40(s0)
80004f70:	0087a783          	lw	a5,8(a5)
80004f74:	00078513          	mv	a0,a5
80004f78:	c90ff0ef          	jal	ra,80004408 <timer_load>
        return _timer;
80004f7c:	fd842783          	lw	a5,-40(s0)
80004f80:	0fc0006f          	j	8000507c <insert_to_timer_list+0x180>
    }

    timer *current_timer = timer_head;
80004f84:	fdc42783          	lw	a5,-36(s0)
80004f88:	fef42623          	sw	a5,-20(s0)
    timer_load(timer_head->timeout_tick);
80004f8c:	fdc42783          	lw	a5,-36(s0)
80004f90:	0087a783          	lw	a5,8(a5)
80004f94:	00078513          	mv	a0,a5
80004f98:	c70ff0ef          	jal	ra,80004408 <timer_load>
    while (current_timer->next != NULL)
80004f9c:	0840006f          	j	80005020 <insert_to_timer_list+0x124>
    {
        if (current_timer->next->timeout_tick > _timer->timeout_tick && current_timer->timeout_tick < _timer->timeout_tick)
80004fa0:	fec42783          	lw	a5,-20(s0)
80004fa4:	00c7a783          	lw	a5,12(a5)
80004fa8:	0087a703          	lw	a4,8(a5)
80004fac:	fd842783          	lw	a5,-40(s0)
80004fb0:	0087a783          	lw	a5,8(a5)
80004fb4:	06e7f063          	bgeu	a5,a4,80005014 <insert_to_timer_list+0x118>
80004fb8:	fec42783          	lw	a5,-20(s0)
80004fbc:	0087a703          	lw	a4,8(a5)
80004fc0:	fd842783          	lw	a5,-40(s0)
80004fc4:	0087a783          	lw	a5,8(a5)
80004fc8:	04f77663          	bgeu	a4,a5,80005014 <insert_to_timer_list+0x118>
        {
            _timer->next = current_timer->next;
80004fcc:	fec42783          	lw	a5,-20(s0)
80004fd0:	00c7a703          	lw	a4,12(a5)
80004fd4:	fd842783          	lw	a5,-40(s0)
80004fd8:	00e7a623          	sw	a4,12(a5)
            current_timer->next = _timer;
80004fdc:	fec42783          	lw	a5,-20(s0)
80004fe0:	fd842703          	lw	a4,-40(s0)
80004fe4:	00e7a623          	sw	a4,12(a5)

            if (_timer->timeout_tick < next_timer->timeout_tick)
80004fe8:	fd842783          	lw	a5,-40(s0)
80004fec:	0087a703          	lw	a4,8(a5)
80004ff0:	800067b7          	lui	a5,0x80006
80004ff4:	0647a783          	lw	a5,100(a5) # 80006064 <_memory_end+0xf8006064>
80004ff8:	0087a783          	lw	a5,8(a5)
80004ffc:	00f77863          	bgeu	a4,a5,8000500c <insert_to_timer_list+0x110>
            {
                next_timer = _timer;
80005000:	800067b7          	lui	a5,0x80006
80005004:	fd842703          	lw	a4,-40(s0)
80005008:	06e7a223          	sw	a4,100(a5) # 80006064 <_memory_end+0xf8006064>
            }
            return timer_head;
8000500c:	fdc42783          	lw	a5,-36(s0)
80005010:	06c0006f          	j	8000507c <insert_to_timer_list+0x180>
        }
        current_timer = current_timer->next;
80005014:	fec42783          	lw	a5,-20(s0)
80005018:	00c7a783          	lw	a5,12(a5)
8000501c:	fef42623          	sw	a5,-20(s0)
    while (current_timer->next != NULL)
80005020:	fec42783          	lw	a5,-20(s0)
80005024:	00c7a783          	lw	a5,12(a5)
80005028:	f6079ce3          	bnez	a5,80004fa0 <insert_to_timer_list+0xa4>
    }
    current_timer->next = _timer;
8000502c:	fec42783          	lw	a5,-20(s0)
80005030:	fd842703          	lw	a4,-40(s0)
80005034:	00e7a623          	sw	a4,12(a5)
    if (next_timer == NULL || (_timer->timeout_tick < next_timer->timeout_tick))
80005038:	800067b7          	lui	a5,0x80006
8000503c:	0647a783          	lw	a5,100(a5) # 80006064 <_memory_end+0xf8006064>
80005040:	00078e63          	beqz	a5,8000505c <insert_to_timer_list+0x160>
80005044:	fd842783          	lw	a5,-40(s0)
80005048:	0087a703          	lw	a4,8(a5)
8000504c:	800067b7          	lui	a5,0x80006
80005050:	0647a783          	lw	a5,100(a5) # 80006064 <_memory_end+0xf8006064>
80005054:	0087a783          	lw	a5,8(a5)
80005058:	00f77863          	bgeu	a4,a5,80005068 <insert_to_timer_list+0x16c>
    {
        next_timer = _timer;
8000505c:	800067b7          	lui	a5,0x80006
80005060:	fd842703          	lw	a4,-40(s0)
80005064:	06e7a223          	sw	a4,100(a5) # 80006064 <_memory_end+0xf8006064>
    }
    timer_load(timer_head->timeout_tick);
80005068:	fdc42783          	lw	a5,-36(s0)
8000506c:	0087a783          	lw	a5,8(a5)
80005070:	00078513          	mv	a0,a5
80005074:	b94ff0ef          	jal	ra,80004408 <timer_load>

    return timer_head;
80005078:	fdc42783          	lw	a5,-36(s0)
}
8000507c:	00078513          	mv	a0,a5
80005080:	02c12083          	lw	ra,44(sp)
80005084:	02812403          	lw	s0,40(sp)
80005088:	03010113          	addi	sp,sp,48
8000508c:	00008067          	ret

80005090 <delete_from_timer_list>:

timer *delete_from_timer_list(timer *timer_head, timer *_timer)
{
80005090:	fd010113          	addi	sp,sp,-48
80005094:	02812623          	sw	s0,44(sp)
80005098:	03010413          	addi	s0,sp,48
8000509c:	fca42e23          	sw	a0,-36(s0)
800050a0:	fcb42c23          	sw	a1,-40(s0)
    if (timer_head == NULL)
800050a4:	fdc42783          	lw	a5,-36(s0)
800050a8:	00079663          	bnez	a5,800050b4 <delete_from_timer_list+0x24>
        return NULL;
800050ac:	00000793          	li	a5,0
800050b0:	0b40006f          	j	80005164 <delete_from_timer_list+0xd4>
    if (timer_head == _timer)
800050b4:	fdc42703          	lw	a4,-36(s0)
800050b8:	fd842783          	lw	a5,-40(s0)
800050bc:	02f71a63          	bne	a4,a5,800050f0 <delete_from_timer_list+0x60>
    {
        timer *new_head = timer_head->next;
800050c0:	fdc42783          	lw	a5,-36(s0)
800050c4:	00c7a783          	lw	a5,12(a5)
800050c8:	fef42423          	sw	a5,-24(s0)
        if (next_timer == timer_head)
800050cc:	800067b7          	lui	a5,0x80006
800050d0:	0647a783          	lw	a5,100(a5) # 80006064 <_memory_end+0xf8006064>
800050d4:	fdc42703          	lw	a4,-36(s0)
800050d8:	00f71863          	bne	a4,a5,800050e8 <delete_from_timer_list+0x58>
        {
            next_timer = new_head;
800050dc:	800067b7          	lui	a5,0x80006
800050e0:	fe842703          	lw	a4,-24(s0)
800050e4:	06e7a223          	sw	a4,100(a5) # 80006064 <_memory_end+0xf8006064>
        }
        return new_head;
800050e8:	fe842783          	lw	a5,-24(s0)
800050ec:	0780006f          	j	80005164 <delete_from_timer_list+0xd4>
    }
    timer *current_timer = timer_head;
800050f0:	fdc42783          	lw	a5,-36(s0)
800050f4:	fef42623          	sw	a5,-20(s0)
    while (current_timer->next != NULL)
800050f8:	05c0006f          	j	80005154 <delete_from_timer_list+0xc4>
    {
        if (current_timer->next == _timer)
800050fc:	fec42783          	lw	a5,-20(s0)
80005100:	00c7a783          	lw	a5,12(a5)
80005104:	fd842703          	lw	a4,-40(s0)
80005108:	04f71063          	bne	a4,a5,80005148 <delete_from_timer_list+0xb8>
        {
            current_timer->next = current_timer->next->next;
8000510c:	fec42783          	lw	a5,-20(s0)
80005110:	00c7a783          	lw	a5,12(a5)
80005114:	00c7a703          	lw	a4,12(a5)
80005118:	fec42783          	lw	a5,-20(s0)
8000511c:	00e7a623          	sw	a4,12(a5)
            if (next_timer == _timer)
80005120:	800067b7          	lui	a5,0x80006
80005124:	0647a783          	lw	a5,100(a5) # 80006064 <_memory_end+0xf8006064>
80005128:	fd842703          	lw	a4,-40(s0)
8000512c:	00f71a63          	bne	a4,a5,80005140 <delete_from_timer_list+0xb0>
            {
                next_timer = current_timer->next;
80005130:	fec42783          	lw	a5,-20(s0)
80005134:	00c7a703          	lw	a4,12(a5)
80005138:	800067b7          	lui	a5,0x80006
8000513c:	06e7a223          	sw	a4,100(a5) # 80006064 <_memory_end+0xf8006064>
            }
            return timer_head;
80005140:	fdc42783          	lw	a5,-36(s0)
80005144:	0200006f          	j	80005164 <delete_from_timer_list+0xd4>
        }
        current_timer = current_timer->next;
80005148:	fec42783          	lw	a5,-20(s0)
8000514c:	00c7a783          	lw	a5,12(a5)
80005150:	fef42623          	sw	a5,-20(s0)
    while (current_timer->next != NULL)
80005154:	fec42783          	lw	a5,-20(s0)
80005158:	00c7a783          	lw	a5,12(a5)
8000515c:	fa0790e3          	bnez	a5,800050fc <delete_from_timer_list+0x6c>
    }
    return timer_head;
80005160:	fdc42783          	lw	a5,-36(s0)
}
80005164:	00078513          	mv	a0,a5
80005168:	02c12403          	lw	s0,44(sp)
8000516c:	03010113          	addi	sp,sp,48
80005170:	00008067          	ret

80005174 <just_while>:
#include "include/user/user_syscall.h"

#define DELAY 1

void just_while(void)
{
80005174:	ff010113          	addi	sp,sp,-16
80005178:	00812623          	sw	s0,12(sp)
8000517c:	01010413          	addi	s0,sp,16
	while (1)
80005180:	0000006f          	j	80005180 <just_while+0xc>

80005184 <user_task0>:
		;
	}
}

void user_task0(void *param)
{
80005184:	fe010113          	addi	sp,sp,-32
80005188:	00112e23          	sw	ra,28(sp)
8000518c:	00812c23          	sw	s0,24(sp)
80005190:	02010413          	addi	s0,sp,32
80005194:	fea42623          	sw	a0,-20(s0)
	uart_puts("Task 0: Created!\n");
80005198:	800067b7          	lui	a5,0x80006
8000519c:	bb878513          	addi	a0,a5,-1096 # 80005bb8 <_memory_end+0xf8005bb8>
800051a0:	ee9fe0ef          	jal	ra,80004088 <uart_puts>
	while (1)
	{
		uart_puts("Task 0: Running...\n");
800051a4:	800067b7          	lui	a5,0x80006
800051a8:	bcc78513          	addi	a0,a5,-1076 # 80005bcc <_memory_end+0xf8005bcc>
800051ac:	eddfe0ef          	jal	ra,80004088 <uart_puts>
		task_delay(DELAY);
800051b0:	00100513          	li	a0,1
800051b4:	9d1fd0ef          	jal	ra,80002b84 <task_delay>
		uart_puts("Task 0: Running...\n");
800051b8:	fedff06f          	j	800051a4 <user_task0+0x20>

800051bc <user_task1>:
	}
}

void user_task1(void *param)
{
800051bc:	fe010113          	addi	sp,sp,-32
800051c0:	00112e23          	sw	ra,28(sp)
800051c4:	00812c23          	sw	s0,24(sp)
800051c8:	02010413          	addi	s0,sp,32
800051cc:	fea42623          	sw	a0,-20(s0)
	uart_puts("Task 1: Created!\n");
800051d0:	800067b7          	lui	a5,0x80006
800051d4:	be078513          	addi	a0,a5,-1056 # 80005be0 <_memory_end+0xf8005be0>
800051d8:	eb1fe0ef          	jal	ra,80004088 <uart_puts>
	while (1)
	{
		uart_puts("Task 1: Running...\n");
800051dc:	800067b7          	lui	a5,0x80006
800051e0:	bf478513          	addi	a0,a5,-1036 # 80005bf4 <_memory_end+0xf8005bf4>
800051e4:	ea5fe0ef          	jal	ra,80004088 <uart_puts>
		task_delay(DELAY);
800051e8:	00100513          	li	a0,1
800051ec:	999fd0ef          	jal	ra,80002b84 <task_delay>
		uart_puts("Task 1: Running...\n");
800051f0:	fedff06f          	j	800051dc <user_task1+0x20>

800051f4 <user_task>:
	}
}

void user_task(void *param)
{
800051f4:	fd010113          	addi	sp,sp,-48
800051f8:	02112623          	sw	ra,44(sp)
800051fc:	02812423          	sw	s0,40(sp)
80005200:	03010413          	addi	s0,sp,48
80005204:	fca42e23          	sw	a0,-36(s0)
	int task_id = (int)param;
80005208:	fdc42783          	lw	a5,-36(s0)
8000520c:	fef42423          	sw	a5,-24(s0)
	printf("Task %d: Created!\n", task_id);
80005210:	fe842583          	lw	a1,-24(s0)
80005214:	800067b7          	lui	a5,0x80006
80005218:	c0878513          	addi	a0,a5,-1016 # 80005c08 <_memory_end+0xf8005c08>
8000521c:	bedff0ef          	jal	ra,80004e08 <printf>
	int iter_cnt = task_id;
80005220:	fe842783          	lw	a5,-24(s0)
80005224:	fef42623          	sw	a5,-20(s0)
	while (1)
	{
		printf("Task %d: Running...\n", task_id);
80005228:	fe842583          	lw	a1,-24(s0)
8000522c:	800067b7          	lui	a5,0x80006
80005230:	c1c78513          	addi	a0,a5,-996 # 80005c1c <_memory_end+0xf8005c1c>
80005234:	bd5ff0ef          	jal	ra,80004e08 <printf>
		task_delay(DELAY);
80005238:	00100513          	li	a0,1
8000523c:	949fd0ef          	jal	ra,80002b84 <task_delay>
		if (iter_cnt-- == 0)
80005240:	fec42783          	lw	a5,-20(s0)
80005244:	fff78713          	addi	a4,a5,-1
80005248:	fee42623          	sw	a4,-20(s0)
8000524c:	00078463          	beqz	a5,80005254 <user_task+0x60>
		printf("Task %d: Running...\n", task_id);
80005250:	fd9ff06f          	j	80005228 <user_task+0x34>
		{
			break;
80005254:	00000013          	nop
		}
	}
	printf("Task %d: Finished!\n", task_id);
80005258:	fe842583          	lw	a1,-24(s0)
8000525c:	800067b7          	lui	a5,0x80006
80005260:	c3478513          	addi	a0,a5,-972 # 80005c34 <_memory_end+0xf8005c34>
80005264:	ba5ff0ef          	jal	ra,80004e08 <printf>
	task_exit();
80005268:	ffcfd0ef          	jal	ra,80002a64 <task_exit>
}
8000526c:	00000013          	nop
80005270:	02c12083          	lw	ra,44(sp)
80005274:	02812403          	lw	s0,40(sp)
80005278:	03010113          	addi	sp,sp,48
8000527c:	00008067          	ret

80005280 <user_syscall_task>:

void user_syscall_task(void *param)
{
80005280:	fd010113          	addi	sp,sp,-48
80005284:	02112623          	sw	ra,44(sp)
80005288:	02812423          	sw	s0,40(sp)
8000528c:	03010413          	addi	s0,sp,48
80005290:	fca42e23          	sw	a0,-36(s0)
    int task_id = (int)param;
80005294:	fdc42783          	lw	a5,-36(s0)
80005298:	fef42423          	sw	a5,-24(s0)
    u_uart_puts("User Syscall Task: Started!\n");
8000529c:	800067b7          	lui	a5,0x80006
800052a0:	c4878513          	addi	a0,a5,-952 # 80005c48 <_memory_end+0xf8005c48>
800052a4:	300000ef          	jal	ra,800055a4 <u_uart_puts>
    
    // 使用系统调用接口打印
    u_printf("Task %d: 使用系统调用接口\n", task_id);
800052a8:	fe842583          	lw	a1,-24(s0)
800052ac:	800067b7          	lui	a5,0x80006
800052b0:	c6878513          	addi	a0,a5,-920 # 80005c68 <_memory_end+0xf8005c68>
800052b4:	260000ef          	jal	ra,80005514 <u_printf>
    
    for (int i = 0; i < 3; i++) {
800052b8:	fe042623          	sw	zero,-20(s0)
800052bc:	02c0006f          	j	800052e8 <user_syscall_task+0x68>
		u_printf("Task %d: 迭代 %d\n", task_id, i);
800052c0:	fec42603          	lw	a2,-20(s0)
800052c4:	fe842583          	lw	a1,-24(s0)
800052c8:	800067b7          	lui	a5,0x80006
800052cc:	c8c78513          	addi	a0,a5,-884 # 80005c8c <_memory_end+0xf8005c8c>
800052d0:	244000ef          	jal	ra,80005514 <u_printf>
        u_task_delay(1); // 使用系统调用接口延迟
800052d4:	00100513          	li	a0,1
800052d8:	1a0000ef          	jal	ra,80005478 <u_task_delay>
    for (int i = 0; i < 3; i++) {
800052dc:	fec42783          	lw	a5,-20(s0)
800052e0:	00178793          	addi	a5,a5,1
800052e4:	fef42623          	sw	a5,-20(s0)
800052e8:	fec42703          	lw	a4,-20(s0)
800052ec:	00200793          	li	a5,2
800052f0:	fce7d8e3          	bge	a5,a4,800052c0 <user_syscall_task+0x40>
    }
    
    // 分配内存测试
    void *mem = u_malloc(64);
800052f4:	04000513          	li	a0,64
800052f8:	1b0000ef          	jal	ra,800054a8 <u_malloc>
800052fc:	fea42223          	sw	a0,-28(s0)
    if (mem != NULL) {
80005300:	fe442783          	lw	a5,-28(s0)
80005304:	02078063          	beqz	a5,80005324 <user_syscall_task+0xa4>
        u_printf("Task %d: 内存分配成功: %p\n", task_id, mem);
80005308:	fe442603          	lw	a2,-28(s0)
8000530c:	fe842583          	lw	a1,-24(s0)
80005310:	800067b7          	lui	a5,0x80006
80005314:	ca078513          	addi	a0,a5,-864 # 80005ca0 <_memory_end+0xf8005ca0>
80005318:	1fc000ef          	jal	ra,80005514 <u_printf>
        u_free(mem); // 释放内存
8000531c:	fe442503          	lw	a0,-28(s0)
80005320:	1c4000ef          	jal	ra,800054e4 <u_free>
    }
    
    u_uart_puts("User Syscall Task: 完成!\n");
80005324:	800067b7          	lui	a5,0x80006
80005328:	cc478513          	addi	a0,a5,-828 # 80005cc4 <_memory_end+0xf8005cc4>
8000532c:	278000ef          	jal	ra,800055a4 <u_uart_puts>
    u_task_exit(); // 使用系统调用接口退出
80005330:	124000ef          	jal	ra,80005454 <u_task_exit>
}
80005334:	00000013          	nop
80005338:	02c12083          	lw	ra,44(sp)
8000533c:	02812403          	lw	s0,40(sp)
80005340:	03010113          	addi	sp,sp,48
80005344:	00008067          	ret

80005348 <os_main>:

/* NOTICE: DON'T LOOP INFINITELY IN main() */
void os_main(void)
{
80005348:	ff010113          	addi	sp,sp,-16
8000534c:	00112623          	sw	ra,12(sp)
80005350:	00812423          	sw	s0,8(sp)
80005354:	01010413          	addi	s0,sp,16
    // 直接使用内核API创建所有任务
    task_create(just_while, NULL, 129, DEFAULT_TIMESLICE);
80005358:	00200693          	li	a3,2
8000535c:	08100613          	li	a2,129
80005360:	00000593          	li	a1,0
80005364:	800057b7          	lui	a5,0x80005
80005368:	17478513          	addi	a0,a5,372 # 80005174 <_memory_end+0xf8005174>
8000536c:	c1cfd0ef          	jal	ra,80002788 <task_create>
    task_create(user_task0, NULL, 128, DEFAULT_TIMESLICE);
80005370:	00200693          	li	a3,2
80005374:	08000613          	li	a2,128
80005378:	00000593          	li	a1,0
8000537c:	800057b7          	lui	a5,0x80005
80005380:	18478513          	addi	a0,a5,388 # 80005184 <_memory_end+0xf8005184>
80005384:	c04fd0ef          	jal	ra,80002788 <task_create>
    task_create(user_task1, NULL, 128, DEFAULT_TIMESLICE);
80005388:	00200693          	li	a3,2
8000538c:	08000613          	li	a2,128
80005390:	00000593          	li	a1,0
80005394:	800057b7          	lui	a5,0x80005
80005398:	1bc78513          	addi	a0,a5,444 # 800051bc <_memory_end+0xf80051bc>
8000539c:	becfd0ef          	jal	ra,80002788 <task_create>
    task_create(user_syscall_task, (void*)2, 3, DEFAULT_TIMESLICE);
800053a0:	00200693          	li	a3,2
800053a4:	00300613          	li	a2,3
800053a8:	00200593          	li	a1,2
800053ac:	800057b7          	lui	a5,0x80005
800053b0:	28078513          	addi	a0,a5,640 # 80005280 <_memory_end+0xf8005280>
800053b4:	bd4fd0ef          	jal	ra,80002788 <task_create>
800053b8:	00000013          	nop
800053bc:	00c12083          	lw	ra,12(sp)
800053c0:	00812403          	lw	s0,8(sp)
800053c4:	01010113          	addi	sp,sp,16
800053c8:	00008067          	ret

800053cc <u_task_create>:
#include "syscall.h"
#include "os.h"

// 用户态系统调用包装函数
int u_task_create(void (*start_routine)(void*), void *param, unsigned char priority, unsigned int timeslice)
{
800053cc:	fd010113          	addi	sp,sp,-48
800053d0:	02812623          	sw	s0,44(sp)
800053d4:	03010413          	addi	s0,sp,48
800053d8:	fca42e23          	sw	a0,-36(s0)
800053dc:	fcb42c23          	sw	a1,-40(s0)
800053e0:	00060793          	mv	a5,a2
800053e4:	fcd42823          	sw	a3,-48(s0)
800053e8:	fcf40ba3          	sb	a5,-41(s0)
    int ret;
    asm volatile(
800053ec:	fdc42783          	lw	a5,-36(s0)
800053f0:	fd842703          	lw	a4,-40(s0)
800053f4:	fd744803          	lbu	a6,-41(s0)
800053f8:	fd042303          	lw	t1,-48(s0)
800053fc:	00100893          	li	a7,1
80005400:	00078513          	mv	a0,a5
80005404:	00070593          	mv	a1,a4
80005408:	00080613          	mv	a2,a6
8000540c:	00030693          	mv	a3,t1
80005410:	00000073          	ecall
80005414:	00050793          	mv	a5,a0
80005418:	fef42623          	sw	a5,-20(s0)
        "ecall\n"
        "mv %0, a0"
        : "=r"(ret)
        : "i"(SYS_task_create), "r"(start_routine), "r"(param), "r"(priority), "r"(timeslice)
        : "a0", "a1", "a2", "a3", "a7");
    return ret;
8000541c:	fec42783          	lw	a5,-20(s0)
}
80005420:	00078513          	mv	a0,a5
80005424:	02c12403          	lw	s0,44(sp)
80005428:	03010113          	addi	sp,sp,48
8000542c:	00008067          	ret

80005430 <u_task_yield>:

void u_task_yield(void)
{
80005430:	ff010113          	addi	sp,sp,-16
80005434:	00812623          	sw	s0,12(sp)
80005438:	01010413          	addi	s0,sp,16
    asm volatile(
8000543c:	00200893          	li	a7,2
80005440:	00000073          	ecall
        "li a7, %0\n"
        "ecall"
        :
        : "i"(SYS_task_yield)
        : "a7");
}
80005444:	00000013          	nop
80005448:	00c12403          	lw	s0,12(sp)
8000544c:	01010113          	addi	sp,sp,16
80005450:	00008067          	ret

80005454 <u_task_exit>:

void u_task_exit(void)
{
80005454:	ff010113          	addi	sp,sp,-16
80005458:	00812623          	sw	s0,12(sp)
8000545c:	01010413          	addi	s0,sp,16
    asm volatile(
80005460:	00300893          	li	a7,3
80005464:	00000073          	ecall
        "li a7, %0\n"
        "ecall"
        :
        : "i"(SYS_task_exit)
        : "a7");
}
80005468:	00000013          	nop
8000546c:	00c12403          	lw	s0,12(sp)
80005470:	01010113          	addi	sp,sp,16
80005474:	00008067          	ret

80005478 <u_task_delay>:

void u_task_delay(unsigned int count)
{
80005478:	fe010113          	addi	sp,sp,-32
8000547c:	00812e23          	sw	s0,28(sp)
80005480:	02010413          	addi	s0,sp,32
80005484:	fea42623          	sw	a0,-20(s0)
    asm volatile(
80005488:	fec42783          	lw	a5,-20(s0)
8000548c:	00400893          	li	a7,4
80005490:	00078513          	mv	a0,a5
80005494:	00000073          	ecall
        "mv a0, %0\n"
        "ecall"
        :
        : "r"(count), "i"(SYS_task_delay)
        : "a0", "a7");
}
80005498:	00000013          	nop
8000549c:	01c12403          	lw	s0,28(sp)
800054a0:	02010113          	addi	sp,sp,32
800054a4:	00008067          	ret

800054a8 <u_malloc>:

void* u_malloc(size_t size)
{
800054a8:	fd010113          	addi	sp,sp,-48
800054ac:	02812623          	sw	s0,44(sp)
800054b0:	03010413          	addi	s0,sp,48
800054b4:	fca42e23          	sw	a0,-36(s0)
    void* ret;
    asm volatile(
800054b8:	fdc42783          	lw	a5,-36(s0)
800054bc:	00500893          	li	a7,5
800054c0:	00078513          	mv	a0,a5
800054c4:	00000073          	ecall
800054c8:	00050793          	mv	a5,a0
800054cc:	fef42623          	sw	a5,-20(s0)
        "ecall\n"
        "mv %0, a0"
        : "=r"(ret)
        : "i"(SYS_malloc), "r"(size)
        : "a0", "a7");
    return ret;
800054d0:	fec42783          	lw	a5,-20(s0)
}
800054d4:	00078513          	mv	a0,a5
800054d8:	02c12403          	lw	s0,44(sp)
800054dc:	03010113          	addi	sp,sp,48
800054e0:	00008067          	ret

800054e4 <u_free>:

void u_free(void *ptr)
{
800054e4:	fe010113          	addi	sp,sp,-32
800054e8:	00812e23          	sw	s0,28(sp)
800054ec:	02010413          	addi	s0,sp,32
800054f0:	fea42623          	sw	a0,-20(s0)
    asm volatile(
800054f4:	fec42783          	lw	a5,-20(s0)
800054f8:	00600893          	li	a7,6
800054fc:	00078513          	mv	a0,a5
80005500:	00000073          	ecall
        "mv a0, %0\n"
        "ecall"
        :
        : "r"(ptr), "i"(SYS_free)
        : "a0", "a7");
}
80005504:	00000013          	nop
80005508:	01c12403          	lw	s0,28(sp)
8000550c:	02010113          	addi	sp,sp,32
80005510:	00008067          	ret

80005514 <u_printf>:

// 替换现有的 u_printf 实现
int u_printf(const char *format, ...)
{
80005514:	eb010113          	addi	sp,sp,-336
80005518:	12112623          	sw	ra,300(sp)
8000551c:	12812423          	sw	s0,296(sp)
80005520:	13010413          	addi	s0,sp,304
80005524:	eca42e23          	sw	a0,-292(s0)
80005528:	00b42223          	sw	a1,4(s0)
8000552c:	00c42423          	sw	a2,8(s0)
80005530:	00d42623          	sw	a3,12(s0)
80005534:	00e42823          	sw	a4,16(s0)
80005538:	00f42a23          	sw	a5,20(s0)
8000553c:	01042c23          	sw	a6,24(s0)
80005540:	01142e23          	sw	a7,28(s0)
    // 首先在用户空间格式化字符串
    char buffer[256];  // 预先分配足够的缓冲区
    va_list args;
    va_start(args, format);
80005544:	02040793          	addi	a5,s0,32
80005548:	ecf42c23          	sw	a5,-296(s0)
8000554c:	ed842783          	lw	a5,-296(s0)
80005550:	fe478793          	addi	a5,a5,-28
80005554:	eef42223          	sw	a5,-284(s0)
    
    // 在用户空间完成格式化
    int len = _vsprintf(buffer, format, args);
80005558:	ee442703          	lw	a4,-284(s0)
8000555c:	ee840793          	addi	a5,s0,-280
80005560:	00070613          	mv	a2,a4
80005564:	edc42583          	lw	a1,-292(s0)
80005568:	00078513          	mv	a0,a5
8000556c:	949ff0ef          	jal	ra,80004eb4 <_vsprintf>
80005570:	fea42623          	sw	a0,-20(s0)
    va_end(args);
    
    // 然后调用系统调用只传递格式化后的字符串
    int ret;
    asm volatile(
80005574:	ee840793          	addi	a5,s0,-280
80005578:	00800893          	li	a7,8
8000557c:	00078513          	mv	a0,a5
80005580:	00000073          	ecall
80005584:	00050793          	mv	a5,a0
80005588:	fef42423          	sw	a5,-24(s0)
        "mv %0, a0"
        : "=r"(ret)
        : "i"(SYS_uart_puts), "r"(buffer)  // 使用uart_puts替代printf
        : "a0", "a7");
    
    return len;
8000558c:	fec42783          	lw	a5,-20(s0)
}
80005590:	00078513          	mv	a0,a5
80005594:	12c12083          	lw	ra,300(sp)
80005598:	12812403          	lw	s0,296(sp)
8000559c:	15010113          	addi	sp,sp,336
800055a0:	00008067          	ret

800055a4 <u_uart_puts>:

// 添加一个简单的vsprintf实现或从printf.c借用

void u_uart_puts(char *s)
{
800055a4:	fe010113          	addi	sp,sp,-32
800055a8:	00812e23          	sw	s0,28(sp)
800055ac:	02010413          	addi	s0,sp,32
800055b0:	fea42623          	sw	a0,-20(s0)
    asm volatile(
800055b4:	fec42783          	lw	a5,-20(s0)
800055b8:	00800893          	li	a7,8
800055bc:	00078513          	mv	a0,a5
800055c0:	00000073          	ecall
        "mv a0, %0\n"
        "ecall"
        :
        : "r"(s), "i"(SYS_uart_puts)
        : "a0", "a7");
800055c4:	00000013          	nop
800055c8:	01c12403          	lw	s0,28(sp)
800055cc:	02010113          	addi	sp,sp,32
800055d0:	00008067          	ret
